BL51 BANKED LINKER/LOCATER V6.22                                                        02/23/2023  20:29:40  PAGE 1


BL51 BANKED LINKER/LOCATER V6.22, INVOKED BY:
E:\MDK5\C51\BIN\BL51.EXE .\Objects\ds1302.obj, .\Objects\iic.obj, .\Objects\main.obj, .\Objects\onewire.obj TO .\Objects
>> \test PRINT (.\Listings\test.m51) RAMSIZE (256)


MEMORY MODEL: SMALL WITH FLOATING POINT ARITHMETIC


INPUT MODULES INCLUDED:
  .\Objects\ds1302.obj (DS1302)
  .\Objects\iic.obj (IIC)
  .\Objects\main.obj (MAIN)
  .\Objects\onewire.obj (ONEWIRE)
  E:\MDK5\C51\LIB\C51FPS.LIB (?C?FPMUL)
  E:\MDK5\C51\LIB\C51FPS.LIB (?C?FPDIV)
  E:\MDK5\C51\LIB\C51FPS.LIB (?C?FCAST)
  E:\MDK5\C51\LIB\C51FPS.LIB (?C?CASTF)
  E:\MDK5\C51\LIB\C51FPS.LIB (PRINTF)
  E:\MDK5\C51\LIB\C51FPS.LIB (?C?FPGETOPN)
  E:\MDK5\C51\LIB\C51FPS.LIB (?C?FPROUND)
  E:\MDK5\C51\LIB\C51FPS.LIB (?C?FPCONVERT)
  E:\MDK5\C51\LIB\C51FPS.LIB (?C?FPADD)
  E:\MDK5\C51\LIB\C51FPS.LIB (?C?FTNPWR)
  E:\MDK5\C51\LIB\C51S.LIB (?C_STARTUP)
  E:\MDK5\C51\LIB\C51S.LIB (?C?CLDPTR)
  E:\MDK5\C51\LIB\C51S.LIB (?C?CLDOPTR)
  E:\MDK5\C51\LIB\C51S.LIB (?C?CSTPTR)
  E:\MDK5\C51\LIB\C51S.LIB (?C?UIDIV)
  E:\MDK5\C51\LIB\C51S.LIB (?C?SIDIV)
  E:\MDK5\C51\LIB\C51S.LIB (?C?LNEG)
  E:\MDK5\C51\LIB\C51S.LIB (?C?PLDIIDATA)
  E:\MDK5\C51\LIB\C51S.LIB (?C?CCASE)
  E:\MDK5\C51\LIB\C51S.LIB (?C_INIT)


LINK MAP OF MODULE:  .\Objects\test (DS1302)


            TYPE    BASE      LENGTH    RELOCATION   SEGMENT NAME
            -----------------------------------------------------

            * * * * * * *   D A T A   M E M O R Y   * * * * * * *
            REG     0000H     0008H     ABSOLUTE     "REG BANK 0"
                    0008H     0018H                  *** GAP ***
            BIT     0020H.0   0001H.3   UNIT         ?BI?MAIN
            BIT     0021H.3   0001H.1   UNIT         _BIT_GROUP_
            BIT     0022H.4   0000H.1   UNIT         ?BI?IIC_SENDACK?IIC
                    0022H.5   0000H.3                *** GAP ***
            DATA    0023H     0027H     UNIT         ?DT?MAIN
            DATA    004AH     001CH     UNIT         _DATA_GROUP_
            IDATA   0066H     0001H     UNIT         ?STACK

            * * * * * * *   C O D E   M E M O R Y   * * * * * * *
            CODE    0000H     0003H     ABSOLUTE     
            CODE    0003H     0059H     UNIT         ?PR?_DISPLAY_RAW_ADC?MAIN
            CODE    005CH     0006H     UNIT         ?C_INITSEG
                    0062H     0001H                  *** GAP ***
            CODE    0063H     0003H     ABSOLUTE     
BL51 BANKED LINKER/LOCATER V6.22                                                      02/23/2023  20:29:40  PAGE 2


            CODE    0066H     0626H     UNIT         ?C?LIB_CODE
            CODE    068CH     046FH     UNIT         ?PR?PRINTF?PRINTF
            CODE    0AFBH     011CH     UNIT         ?PR?SERVER?MAIN
            CODE    0C17H     0116H     UNIT         ?PR?TASK8_LOOP?MAIN
            CODE    0D2DH     00CAH     UNIT         ?PR?READ_KEY?MAIN
            CODE    0DF7H     00C0H     UNIT         ?PR?DISPLAY_FREQUENCE?MAIN
            CODE    0EB7H     00A4H     UNIT         ?PR?MAIN?MAIN
            CODE    0F5BH     009AH     UNIT         ?PR?DISPLAY_KEY?MAIN
            CODE    0FF5H     0096H     UNIT         ?PR?TASK6_LOOP?MAIN
            CODE    108BH     008CH     UNIT         ?C_C51STARTUP
            CODE    1117H     0079H     UNIT         ?PR?_DISPLAY_VOLTAGE?MAIN
            CODE    1190H     0069H     UNIT         ?PR?DISPLAY_TEMP?MAIN
            CODE    11F9H     0051H     UNIT         ?PR?CEJU?MAIN
            CODE    124AH     0051H     UNIT         ?PR?READ_TEMP?ONEWIRE
            CODE    129BH     0048H     UNIT         ?PR?DISPLAY_DISTANCE?MAIN
            CODE    12E3H     0046H     UNIT         ?PR?DISPLAY_DS1302?MAIN
            CODE    1329H     0041H     UNIT         ?PR?BASIC?MAIN
            CODE    136AH     003FH     UNIT         ?CO?MAIN
            CODE    13A9H     0034H     UNIT         ?PR?_READ_DS1302_BYTE?DS1302
            CODE    13DDH     0033H     UNIT         ?PR?_DISPLAY_24C02?MAIN
            CODE    1410H     0033H     UNIT         ?PR?FREQUENCE?MAIN
            CODE    1443H     002EH     UNIT         ?PR?_READ_24C02?IIC
            CODE    1471H     002CH     UNIT         ?PR?_IIC_SENDBYTE?IIC
            CODE    149DH     0029H     UNIT         ?PR?_CONFIG_DS1302?MAIN
            CODE    14C6H     0027H     UNIT         ?PR?INIT_DS18B20?ONEWIRE
            CODE    14EDH     0024H     UNIT         ?PR?_ADC?IIC
            CODE    1511H     0022H     UNIT         ?PR?_WRITE_24C02?IIC
            CODE    1533H     001FH     UNIT         ?PR?_SMG?MAIN
            CODE    1552H     001EH     UNIT         ?PR?_WRITE_DS18B20?ONEWIRE
            CODE    1570H     001DH     UNIT         ?PR?IIC_RECBYTE?IIC
            CODE    158DH     001BH     UNIT         ?PR?IIC_WAITACK?IIC
            CODE    15A8H     001AH     UNIT         ?PR?_DELAY_ONEWIRE?ONEWIRE
            CODE    15C2H     001AH     UNIT         ?PR?READ_DS18B20?ONEWIRE
            CODE    15DCH     0019H     UNIT         ?PR?TASK_CONTROL_CENTER?MAIN
            CODE    15F5H     0017H     UNIT         ?PR?IIC_SENDACK?IIC
            CODE    160CH     0017H     UNIT         ?PR?UARTINIT?MAIN
            CODE    1623H     0017H     UNIT         ?PR?TASK3_LOOP?MAIN
            CODE    163AH     0016H     UNIT         ?PR?_DAC?IIC
            CODE    1650H     0016H     UNIT         ?PR?TASK7_LOOP?MAIN
            CODE    1666H     0016H     UNIT         ?PR?TASK9_LOOP?MAIN
            CODE    167CH     0014H     UNIT         ?PR?_WRITE_DS1302_BYTE?DS1302
            CODE    1690H     0014H     UNIT         ?PR?TASK1_LOOP?MAIN
            CODE    16A4H     0014H     UNIT         ?PR?TASK2_LOOP?MAIN
            CODE    16B8H     0014H     UNIT         ?PR?TASK5_LOOP?MAIN
            CODE    16CCH     0013H     UNIT         ?PR?_WRITE_DS1302?DS1302
            CODE    16DFH     0012H     UNIT         ?PR?TIMER2INIT?MAIN
            CODE    16F1H     0011H     UNIT         ?PR?CEJUINIT?MAIN
            CODE    1702H     0011H     UNIT         ?PR?FREQUENCEINIT?MAIN
            CODE    1713H     000FH     UNIT         ?PR?IIC_START?IIC
            CODE    1722H     000EH     UNIT         ?PR?_IIC_DELAY?IIC
            CODE    1730H     000CH     UNIT         ?PR?IIC_STOP?IIC
            CODE    173CH     000AH     UNIT         ?PR?TASK9_INIT?MAIN
            CODE    1746H     0009H     UNIT         ?PR?DELAY4MS?MAIN
            CODE    174FH     0009H     UNIT         ?PR?TASK1_INIT?MAIN
            CODE    1758H     0009H     UNIT         ?PR?TASK4_INIT?MAIN
            CODE    1761H     0008H     UNIT         ?PR?_PUTCHAR?MAIN
            CODE    1769H     0003H     UNIT         ?PR?TASK3_INIT?MAIN
BL51 BANKED LINKER/LOCATER V6.22                                                      02/23/2023  20:29:40  PAGE 3


            CODE    176CH     0003H     UNIT         ?PR?TASK4_LOOP?MAIN
            CODE    176FH     0003H     UNIT         ?PR?TASK6_INIT?MAIN



OVERLAY MAP OF MODULE:   .\Objects\test (DS1302)


SEGMENT                                  BIT_GROUP          DATA_GROUP 
  +--> CALLED SEGMENT                 START    LENGTH     START    LENGTH
-------------------------------------------------------------------------
?PR?SERVER?MAIN                       -----    -----      -----    -----
  +--> ?PR?_SMG?MAIN
  +--> ?PR?BASIC?MAIN
  +--> ?PR?TASK3_LOOP?MAIN

?PR?_SMG?MAIN                         -----    -----      -----    -----
  +--> ?CO?MAIN

?PR?TASK3_LOOP?MAIN                   -----    -----      -----    -----
  +--> ?PR?FREQUENCE?MAIN
  +--> ?PR?DISPLAY_FREQUENCE?MAIN

*** NEW ROOT ***************************************************

?C_C51STARTUP                         -----    -----      -----    -----
  +--> ?PR?MAIN?MAIN
  +--> ?C_INITSEG

?PR?MAIN?MAIN                         -----    -----      -----    -----
  +--> ?PR?TIMER2INIT?MAIN
  +--> ?PR?TASK1_INIT?MAIN
  +--> ?PR?TASK3_INIT?MAIN
  +--> ?PR?TASK4_INIT?MAIN
  +--> ?PR?TASK6_INIT?MAIN
  +--> ?PR?TASK9_INIT?MAIN
  +--> ?PR?TASK1_LOOP?MAIN
  +--> ?PR?TASK2_LOOP?MAIN
  +--> ?PR?TASK4_LOOP?MAIN
  +--> ?PR?TASK5_LOOP?MAIN
  +--> ?PR?TASK6_LOOP?MAIN
  +--> ?PR?TASK7_LOOP?MAIN
  +--> ?PR?TASK8_LOOP?MAIN
  +--> ?PR?TASK9_LOOP?MAIN
  +--> ?PR?TASK_CONTROL_CENTER?MAIN

?PR?TASK1_INIT?MAIN                   -----    -----      -----    -----
  +--> ?PR?_CONFIG_DS1302?MAIN

?PR?_CONFIG_DS1302?MAIN               -----    -----      004AH    0003H
  +--> ?PR?_WRITE_DS1302_BYTE?DS1302

?PR?_WRITE_DS1302_BYTE?DS1302         -----    -----      -----    -----
  +--> ?PR?_WRITE_DS1302?DS1302

?PR?TASK3_INIT?MAIN                   -----    -----      -----    -----
  +--> ?PR?FREQUENCEINIT?MAIN
BL51 BANKED LINKER/LOCATER V6.22                                                      02/23/2023  20:29:40  PAGE 4



?PR?TASK6_INIT?MAIN                   -----    -----      -----    -----
  +--> ?PR?UARTINIT?MAIN

?PR?TASK9_INIT?MAIN                   -----    -----      -----    -----
  +--> ?PR?_WRITE_24C02?IIC
  +--> ?PR?DELAY4MS?MAIN

?PR?_WRITE_24C02?IIC                  -----    -----      -----    -----
  +--> ?PR?IIC_START?IIC
  +--> ?PR?_IIC_SENDBYTE?IIC
  +--> ?PR?IIC_WAITACK?IIC
  +--> ?PR?IIC_STOP?IIC

?PR?IIC_START?IIC                     -----    -----      -----    -----
  +--> ?PR?_IIC_DELAY?IIC

?PR?_IIC_SENDBYTE?IIC                 -----    -----      -----    -----
  +--> ?PR?_IIC_DELAY?IIC

?PR?IIC_WAITACK?IIC                   0021H.3  0000H.1    -----    -----
  +--> ?PR?IIC_START?IIC
  +--> ?PR?_IIC_SENDBYTE?IIC
  +--> ?PR?_IIC_DELAY?IIC

?PR?IIC_STOP?IIC                      -----    -----      -----    -----
  +--> ?PR?_IIC_DELAY?IIC

?PR?TASK1_LOOP?MAIN                   -----    -----      -----    -----
  +--> ?PR?DISPLAY_DS1302?MAIN

?PR?DISPLAY_DS1302?MAIN               -----    -----      -----    -----
  +--> ?PR?_READ_DS1302_BYTE?DS1302

?PR?_READ_DS1302_BYTE?DS1302          -----    -----      -----    -----
  +--> ?PR?_WRITE_DS1302?DS1302

?PR?TASK2_LOOP?MAIN                   -----    -----      -----    -----
  +--> ?PR?DISPLAY_TEMP?MAIN

?PR?DISPLAY_TEMP?MAIN                 -----    -----      -----    -----
  +--> ?PR?READ_TEMP?ONEWIRE

?PR?READ_TEMP?ONEWIRE                 -----    -----      -----    -----
  +--> ?PR?INIT_DS18B20?ONEWIRE
  +--> ?PR?_WRITE_DS18B20?ONEWIRE
  +--> ?PR?_DELAY_ONEWIRE?ONEWIRE
  +--> ?PR?READ_DS18B20?ONEWIRE

?PR?INIT_DS18B20?ONEWIRE              0021H.3  0000H.1    -----    -----
  +--> ?PR?_DELAY_ONEWIRE?ONEWIRE

?PR?_WRITE_DS18B20?ONEWIRE            -----    -----      -----    -----
  +--> ?PR?_DELAY_ONEWIRE?ONEWIRE

?PR?READ_DS18B20?ONEWIRE              -----    -----      -----    -----
  +--> ?PR?_DELAY_ONEWIRE?ONEWIRE
BL51 BANKED LINKER/LOCATER V6.22                                                      02/23/2023  20:29:40  PAGE 5



?PR?TASK4_LOOP?MAIN                   -----    -----      -----    -----
  +--> ?PR?DISPLAY_KEY?MAIN

?PR?TASK5_LOOP?MAIN                   -----    -----      -----    -----
  +--> ?PR?DISPLAY_DISTANCE?MAIN

?PR?DISPLAY_DISTANCE?MAIN             -----    -----      -----    -----
  +--> ?PR?CEJU?MAIN

?PR?CEJU?MAIN                         -----    -----      -----    -----
  +--> ?PR?CEJUINIT?MAIN

?PR?TASK6_LOOP?MAIN                   -----    -----      -----    -----
  +--> ?PR?READ_TEMP?ONEWIRE
  +--> ?CO?MAIN
  +--> ?PR?PRINTF?PRINTF

?PR?PRINTF?PRINTF                     0021H.3  0001H.1    004AH    001CH
  +--> ?PR?_PUTCHAR?MAIN

?PR?TASK7_LOOP?MAIN                   -----    -----      -----    -----
  +--> ?PR?_DISPLAY_RAW_ADC?MAIN

?PR?_DISPLAY_RAW_ADC?MAIN             -----    -----      -----    -----
  +--> ?PR?_ADC?IIC

?PR?_ADC?IIC                          -----    -----      -----    -----
  +--> ?PR?IIC_WAITACK?IIC
  +--> ?PR?_IIC_SENDBYTE?IIC
  +--> ?PR?IIC_START?IIC
  +--> ?PR?IIC_RECBYTE?IIC
  +--> ?PR?IIC_STOP?IIC

?PR?IIC_RECBYTE?IIC                   -----    -----      -----    -----
  +--> ?PR?_IIC_DELAY?IIC

?PR?TASK9_LOOP?MAIN                   -----    -----      -----    -----
  +--> ?PR?_DISPLAY_24C02?MAIN

?PR?_DISPLAY_24C02?MAIN               -----    -----      -----    -----
  +--> ?PR?_READ_24C02?IIC

?PR?_READ_24C02?IIC                   -----    -----      -----    -----
  +--> ?PR?IIC_START?IIC
  +--> ?PR?_IIC_SENDBYTE?IIC
  +--> ?PR?IIC_WAITACK?IIC
  +--> ?PR?IIC_RECBYTE?IIC
  +--> ?PR?IIC_STOP?IIC

?PR?TASK_CONTROL_CENTER?MAIN          -----    -----      -----    -----
  +--> ?PR?READ_KEY?MAIN



SYMBOL TABLE OF MODULE:  .\Objects\test (DS1302)

BL51 BANKED LINKER/LOCATER V6.22                                                      02/23/2023  20:29:40  PAGE 6


  VALUE           TYPE          NAME
  ----------------------------------

  -------         MODULE        DS1302
  C:0000H         SYMBOL        _ICE_DUMMY_
  D:0090H         PUBLIC        P1
  D:00A0H         PUBLIC        P2
  D:00B0H         PUBLIC        P3
  D:00A8H         PUBLIC        IE
  D:00B8H         PUBLIC        IP
  D:0098H         PUBLIC        SCON
  D:0088H         PUBLIC        TCON
  C:13A9H         PUBLIC        _Read_Ds1302_Byte
  B:00A0H.3       PUBLIC        SDA
  B:0090H.7       PUBLIC        SCK
  C:167CH         PUBLIC        _Write_Ds1302_Byte
  D:00C8H         PUBLIC        T2CON
  C:16CCH         PUBLIC        _Write_Ds1302
  B:0090H.3       PUBLIC        RST
  D:00D0H         PUBLIC        PSW
  -------         PROC          _WRITE_DS1302
  D:0007H         SYMBOL        temp
  -------         DO            
  D:0006H         SYMBOL        i
  -------         ENDDO         
  C:16CCH         LINE#         12
  C:16CCH         LINE#         13
  C:16CCH         LINE#         15
  C:16CEH         LINE#         16
  C:16CEH         LINE#         17
  C:16D0H         LINE#         18
  C:16D4H         LINE#         19
  C:16D8H         LINE#         20
  C:16DAH         LINE#         21
  C:16DEH         LINE#         22
  -------         ENDPROC       _WRITE_DS1302
  -------         PROC          _WRITE_DS1302_BYTE
  D:0007H         SYMBOL        address
  D:0005H         SYMBOL        dat
  C:167CH         LINE#         25
  C:167CH         LINE#         26
  C:167CH         LINE#         27
  C:167FH         LINE#         28
  C:1682H         LINE#         29
  C:1685H         LINE#         30
  C:1688H         LINE#         31
  C:168DH         LINE#         32
  C:168FH         LINE#         33
  -------         ENDPROC       _WRITE_DS1302_BYTE
  -------         PROC          _READ_DS1302_BYTE
  D:0007H         SYMBOL        address
  -------         DO            
  D:0007H         SYMBOL        i
  D:0005H         SYMBOL        temp
  -------         ENDDO         
  C:13A9H         LINE#         35
  C:13A9H         LINE#         36
BL51 BANKED LINKER/LOCATER V6.22                                                      02/23/2023  20:29:40  PAGE 7


  C:13A9H         LINE#         37
  C:13ABH         LINE#         38
  C:13AEH         LINE#         39
  C:13B1H         LINE#         40
  C:13B4H         LINE#         41
  C:13B7H         LINE#         42
  C:13B9H         LINE#         43
  C:13B9H         LINE#         44
  C:13BBH         LINE#         45
  C:13BFH         LINE#         46
  C:13C2H         LINE#         47
  C:13C5H         LINE#         48
  C:13C7H         LINE#         49
  C:13CBH         LINE#         50
  C:13CEH         LINE#         51
  C:13D1H         LINE#         52
  C:13D4H         LINE#         53
  C:13D7H         LINE#         54
  C:13DAH         LINE#         55
  C:13DCH         LINE#         56
  -------         ENDPROC       _READ_DS1302_BYTE
  -------         ENDMOD        DS1302

  -------         MODULE        IIC
  C:0000H         SYMBOL        _ICE_DUMMY_
  D:0090H         PUBLIC        P1
  D:00A0H         PUBLIC        P2
  D:00B0H         PUBLIC        P3
  D:00A8H         PUBLIC        IE
  D:00B8H         PUBLIC        IP
  C:1726H         PUBLIC        _IIC_Delay
  C:14EDH         PUBLIC        _adc
  C:163AH         PUBLIC        _dac
  C:1443H         PUBLIC        _read_24c02
  D:0098H         PUBLIC        SCON
  D:0088H         PUBLIC        TCON
  C:1511H         PUBLIC        _write_24c02
  C:1713H         PUBLIC        IIC_Start
  C:15F5H         PUBLIC        IIC_SendAck
  B:00A0H.1       PUBLIC        SDA
  C:1471H         PUBLIC        _IIC_SendByte
  C:1597H         PUBLIC        IIC_WaitAck
  C:1730H         PUBLIC        IIC_Stop
  B:00A0H.0       PUBLIC        SCL
  D:00C8H         PUBLIC        T2CON
  C:1570H         PUBLIC        IIC_RecByte
  D:00D0H         PUBLIC        PSW
  C:1722H         SYMBOL        L?0026
  -------         PROC          L?0025
  -------         ENDPROC       L?0025
  C:1722H         SYMBOL        L?0026
  -------         PROC          _IIC_DELAY
  D:0007H         SYMBOL        i
  C:1726H         LINE#         12
  C:1726H         LINE#         13
  C:1726H         LINE#         14
  C:1729H         LINE#         15
BL51 BANKED LINKER/LOCATER V6.22                                                      02/23/2023  20:29:40  PAGE 8


  C:172FH         LINE#         16
  -------         ENDPROC       _IIC_DELAY
  -------         PROC          IIC_START
  C:1713H         LINE#         19
  C:1713H         LINE#         20
  C:1713H         LINE#         21
  C:1715H         LINE#         22
  C:1715H         LINE#         23
  C:1718H         LINE#         24
  C:171AH         LINE#         25
  C:171FH         LINE#         26
  C:1721H         LINE#         27
  -------         ENDPROC       IIC_START
  -------         PROC          IIC_STOP
  C:1730H         LINE#         30
  C:1730H         LINE#         31
  C:1730H         LINE#         32
  C:1732H         LINE#         33
  C:1732H         LINE#         34
  C:1735H         LINE#         35
  C:1737H         LINE#         36
  -------         ENDPROC       IIC_STOP
  -------         PROC          IIC_SENDACK
  B:0022H.4       SYMBOL        ackbit
  C:15F5H         LINE#         40
  C:15F5H         LINE#         41
  C:15F5H         LINE#         42
  C:15F7H         LINE#         43
  C:15FBH         LINE#         44
  C:1600H         LINE#         45
  C:1600H         LINE#         46
  C:1603H         LINE#         47
  C:1605H         LINE#         48
  C:1607H         LINE#         49
  -------         ENDPROC       IIC_SENDACK
  -------         PROC          L?0024
  -------         ENDPROC       L?0024
  -------         PROC          IIC_WAITACK
  -------         DO            
  B:0021H.3       SYMBOL        ackbit
  -------         ENDDO         
  C:1597H         LINE#         53
  C:1597H         LINE#         54
  C:1597H         LINE#         57
  C:1597H         LINE#         58
  C:159AH         LINE#         59
  C:159EH         LINE#         60
  C:15A0H         LINE#         61
  C:15A5H         LINE#         62
  C:15A7H         LINE#         63
  -------         ENDPROC       IIC_WAITACK
  -------         PROC          _IIC_SENDBYTE
  D:0005H         SYMBOL        byt
  -------         DO            
  D:0004H         SYMBOL        i
  -------         ENDDO         
  C:1471H         LINE#         66
BL51 BANKED LINKER/LOCATER V6.22                                                      02/23/2023  20:29:40  PAGE 9


  C:1473H         LINE#         67
  C:1473H         LINE#         70
  C:1475H         LINE#         71
  C:1475H         LINE#         72
  C:1477H         LINE#         73
  C:147CH         LINE#         74
  C:1484H         LINE#         75
  C:1486H         LINE#         76
  C:148BH         LINE#         77
  C:148DH         LINE#         78
  C:1491H         LINE#         79
  C:1496H         LINE#         80
  C:149AH         LINE#         81
  C:149CH         LINE#         82
  -------         ENDPROC       _IIC_SENDBYTE
  -------         PROC          IIC_RECBYTE
  -------         DO            
  D:0004H         SYMBOL        i
  D:0005H         SYMBOL        da
  -------         ENDDO         
  C:1570H         LINE#         85
  C:1570H         LINE#         86
  C:1570H         LINE#         88
  C:1572H         LINE#         89
  C:1572H         LINE#         90
  C:1572H         LINE#         91
  C:1575H         LINE#         92
  C:1579H         LINE#         93
  C:157FH         LINE#         94
  C:1581H         LINE#         95
  C:1586H         LINE#         96
  C:158AH         LINE#         97
  C:158CH         LINE#         98
  -------         ENDPROC       IIC_RECBYTE
  -------         PROC          _WRITE_24C02
  D:0002H         SYMBOL        addr
  D:0003H         SYMBOL        dat
  C:1511H         LINE#         100
  C:1515H         LINE#         101
  C:1515H         LINE#         102
  C:1518H         LINE#         103
  C:151DH         LINE#         104
  C:1520H         LINE#         105
  C:1525H         LINE#         106
  C:1528H         LINE#         107
  C:152DH         LINE#         108
  C:1530H         LINE#         109
  -------         ENDPROC       _WRITE_24C02
  -------         PROC          _READ_24C02
  D:0003H         SYMBOL        addr
  -------         DO            
  D:0005H         SYMBOL        temp
  -------         ENDDO         
  C:1443H         LINE#         112
  C:1445H         LINE#         113
  C:1445H         LINE#         115
  C:1448H         LINE#         116
BL51 BANKED LINKER/LOCATER V6.22                                                      02/23/2023  20:29:40  PAGE 10


  C:144DH         LINE#         117
  C:1450H         LINE#         118
  C:1455H         LINE#         119
  C:1458H         LINE#         121
  C:145BH         LINE#         122
  C:1460H         LINE#         123
  C:1463H         LINE#         124
  C:1468H         LINE#         125
  C:146BH         LINE#         126
  C:146EH         LINE#         127
  C:1470H         LINE#         128
  -------         ENDPROC       _READ_24C02
  -------         PROC          _DAC
  D:0003H         SYMBOL        dat
  C:163AH         LINE#         130
  C:163AH         LINE#         131
  C:163AH         LINE#         132
  C:163AH         LINE#         133
  C:163AH         LINE#         134
  C:163DH         LINE#         135
  C:1642H         LINE#         136
  C:1645H         LINE#         137
  C:164AH         LINE#         138
  C:164DH         LINE#         139
  -------         ENDPROC       _DAC
  -------         PROC          _ADC
  D:0003H         SYMBOL        addr
  -------         DO            
  D:0005H         SYMBOL        temp
  -------         ENDDO         
  C:14EDH         LINE#         142
  C:14EDH         LINE#         143
  C:14EDH         LINE#         145
  C:14EDH         LINE#         146
  C:14EDH         LINE#         147
  C:14F0H         LINE#         148
  C:14F5H         LINE#         149
  C:14F8H         LINE#         151
  C:14FBH         LINE#         152
  C:1500H         LINE#         153
  C:1503H         LINE#         154
  C:1508H         LINE#         155
  C:150BH         LINE#         156
  C:150EH         LINE#         157
  C:1510H         LINE#         158
  -------         ENDPROC       _ADC
  -------         ENDMOD        IIC

  -------         MODULE        MAIN
  C:0000H         SYMBOL        _ICE_DUMMY_
  B:0020H.0       PUBLIC        RELAY
  C:1769H         PUBLIC        task3_init
  D:0080H         PUBLIC        P0
  C:1758H         PUBLIC        task4_init
  D:0090H         PUBLIC        P1
  C:15DCH         PUBLIC        task_control_center
  D:00A0H         PUBLIC        P2
BL51 BANKED LINKER/LOCATER V6.22                                                      02/23/2023  20:29:40  PAGE 11


  C:176FH         PUBLIC        task6_init
  D:00B0H         PUBLIC        P3
  C:1690H         PUBLIC        task1_loop
  D:00C0H         PUBLIC        P4
  C:16A4H         PUBLIC        task2_loop
  D:00C8H         PUBLIC        P5
  C:173CH         PUBLIC        task9_init
  C:1623H         PUBLIC        task3_loop
  B:00A8H.7       PUBLIC        EA
  D:00E8H         PUBLIC        P6
  C:176CH         PUBLIC        task4_loop
  B:0020H.1       PUBLIC        LED1
  D:00F8H         PUBLIC        P7
  C:16B8H         PUBLIC        task5_loop
  C:1746H         PUBLIC        Delay4ms
  C:13DDH         PUBLIC        _display_24c02
  B:0020H.2       PUBLIC        LED2
  C:0FF5H         PUBLIC        task6_loop
  B:0020H.3       PUBLIC        LED3
  C:1650H         PUBLIC        task7_loop
  B:0020H.4       PUBLIC        LED4
  C:0C17H         PUBLIC        task8_loop
  B:0020H.5       PUBLIC        LED5
  D:002AH         PUBLIC        TASK_RUN
  C:1666H         PUBLIC        task9_loop
  B:0020H.6       PUBLIC        LED6
  B:0020H.7       PUBLIC        LED7
  B:0021H.0       PUBLIC        LED8
  D:00A8H         PUBLIC        IE
  C:1190H         PUBLIC        display_temp
  C:13A1H         PUBLIC        T_COM
  D:00B8H         PUBLIC        IP
  C:0AFBH         PUBLIC        server
  B:0098H.1       PUBLIC        TI
  C:0DF7H         PUBLIC        display_frequence
  C:16F1H         PUBLIC        CejuInit
  C:1410H         PUBLIC        Frequence
  D:00D8H         PUBLIC        CCON
  C:0F5BH         PUBLIC        display_key
  C:0EB7H         PUBLIC        main
  C:11F9H         PUBLIC        ceju
  C:129BH         PUBLIC        display_distance
  B:0080H.0       PUBLIC        P00
  C:0003H         PUBLIC        _display_raw_adc
  D:0099H         PUBLIC        SBUF
  B:0090H.0       PUBLIC        P10
  B:0080H.1       PUBLIC        P01
  B:0090H.1       PUBLIC        P11
  B:0080H.2       PUBLIC        P02
  B:0021H.1       PUBLIC        init_flag
  B:00B0H.0       PUBLIC        P30
  B:0080H.3       PUBLIC        P03
  D:0098H         PUBLIC        SCON
  B:00B0H.1       PUBLIC        P31
  B:0080H.4       PUBLIC        P04
  C:160CH         PUBLIC        UartInit
  D:0089H         PUBLIC        TMOD
BL51 BANKED LINKER/LOCATER V6.22                                                      02/23/2023  20:29:40  PAGE 12


  D:0088H         PUBLIC        TCON
  B:00B0H.2       PUBLIC        P32
  B:0080H.5       PUBLIC        P05
  B:00C0H.2       PUBLIC        P42
  B:00B0H.3       PUBLIC        P33
  B:0080H.6       PUBLIC        P06
  B:00B0H.4       PUBLIC        P34
  B:0080H.7       PUBLIC        P07
  B:00C0H.4       PUBLIC        P44
  B:00B0H.5       PUBLIC        P35
  C:1702H         PUBLIC        FrequenceInit
  D:002BH         PUBLIC        fre
  D:00AFH         PUBLIC        IE2
  D:008EH         PUBLIC        AUXR
  C:1533H         PUBLIC        _smg
  C:0D2DH         PUBLIC        read_key
  B:0088H.5       PUBLIC        TF0
  B:00A8H.3       PUBLIC        ET1
  D:002DH         PUBLIC        key_value
  D:008CH         PUBLIC        TH0
  C:16DFH         PUBLIC        Timer2Init
  D:008DH         PUBLIC        TH1
  D:00D6H         PUBLIC        T2H
  C:1376H         PUBLIC        t_display
  D:008AH         PUBLIC        TL0
  D:008BH         PUBLIC        TL1
  C:1117H         PUBLIC        _display_voltage
  D:00D7H         PUBLIC        T2L
  D:002EH         PUBLIC        tempreture
  B:0088H.4       PUBLIC        TR0
  B:0088H.6       PUBLIC        TR1
  C:1329H         PUBLIC        BASIC
  B:0021H.2       PUBLIC        BUZZER
  D:0030H         PUBLIC        SMG
  D:0038H         PUBLIC        task1_tick
  D:003AH         PUBLIC        task2_tick
  D:003CH         PUBLIC        task3_tick
  D:003EH         PUBLIC        task4_tick
  D:0040H         PUBLIC        task5_tick
  C:149DH         PUBLIC        _config_ds1302
  D:0042H         PUBLIC        task6_tick
  C:12E3H         PUBLIC        display_ds1302
  D:0044H         PUBLIC        task7_tick
  D:00D0H         PUBLIC        PSW
  D:0046H         PUBLIC        task8_tick
  C:1761H         PUBLIC        _putchar
  D:0048H         PUBLIC        task9_tick
  C:174FH         PUBLIC        task1_init
  -------         PROC          BASIC
  C:1329H         LINE#         35
  C:1329H         LINE#         36
  C:1329H         LINE#         37
  C:132FH         LINE#         38
  C:1357H         LINE#         39
  C:135AH         LINE#         41
  C:135FH         LINE#         42
  C:1367H         LINE#         43
BL51 BANKED LINKER/LOCATER V6.22                                                      02/23/2023  20:29:40  PAGE 13


  C:1369H         LINE#         44
  -------         ENDPROC       BASIC
  -------         PROC          _SMG
  D:0007H         SYMBOL        wei
  D:0005H         SYMBOL        duan
  C:1533H         LINE#         51
  C:1533H         LINE#         52
  C:1533H         LINE#         53
  C:1536H         LINE#         54
  C:1543H         LINE#         55
  C:1551H         LINE#         56
  -------         ENDPROC       _SMG
  -------         PROC          TIMER2INIT
  C:16DFH         LINE#         64
  C:16DFH         LINE#         65
  C:16DFH         LINE#         66
  C:16E2H         LINE#         67
  C:16E5H         LINE#         68
  C:16E8H         LINE#         69
  C:16EBH         LINE#         70
  C:16EEH         LINE#         71
  C:16F0H         LINE#         72
  -------         ENDPROC       TIMER2INIT
  -------         PROC          UARTINIT
  C:160CH         LINE#         81
  C:160CH         LINE#         82
  C:160CH         LINE#         83
  C:160FH         LINE#         84
  C:1612H         LINE#         85
  C:1615H         LINE#         86
  C:1618H         LINE#         87
  C:161BH         LINE#         88
  C:161EH         LINE#         89
  C:1620H         LINE#         90
  C:1622H         LINE#         91
  -------         ENDPROC       UARTINIT
  -------         PROC          _PUTCHAR
  D:0007H         SYMBOL        c
  C:1761H         LINE#         94
  C:1761H         LINE#         95
  C:1761H         LINE#         96
  C:1763H         LINE#         97
  C:1766H         LINE#         98
  C:1768H         LINE#         99
  C:1768H         LINE#         100
  -------         ENDPROC       _PUTCHAR
  -------         PROC          _CONFIG_DS1302
  D:004AH         SYMBOL        shi
  D:004BH         SYMBOL        fen
  D:004CH         SYMBOL        miao
  C:149DH         LINE#         107
  C:14A3H         LINE#         108
  C:14A3H         LINE#         109
  C:14AAH         LINE#         110
  C:14B1H         LINE#         111
  C:14B8H         LINE#         112
  C:14BFH         LINE#         113
BL51 BANKED LINKER/LOCATER V6.22                                                      02/23/2023  20:29:40  PAGE 14


  -------         ENDPROC       _CONFIG_DS1302
  -------         PROC          DISPLAY_DS1302
  C:12E3H         LINE#         116
  C:12E3H         LINE#         117
  C:12E3H         LINE#         118
  C:12EEH         LINE#         119
  C:12F8H         LINE#         120
  C:12FBH         LINE#         121
  C:1306H         LINE#         122
  C:1310H         LINE#         123
  C:1313H         LINE#         124
  C:131EH         LINE#         125
  C:1328H         LINE#         126
  -------         ENDPROC       DISPLAY_DS1302
  -------         PROC          DISPLAY_TEMP
  C:1190H         LINE#         134
  C:1190H         LINE#         135
  C:1190H         LINE#         136
  C:11A4H         LINE#         137
  C:11A7H         LINE#         138
  C:11AAH         LINE#         139
  C:11ADH         LINE#         140
  C:11B0H         LINE#         141
  C:11C0H         LINE#         142
  C:11D7H         LINE#         143
  C:11EBH         LINE#         144
  C:11F8H         LINE#         145
  -------         ENDPROC       DISPLAY_TEMP
  -------         PROC          _DISPLAY_VOLTAGE
  D:0007H         SYMBOL        addr
  -------         DO            
  D:0002H         SYMBOL        vol
  -------         ENDDO         
  C:1117H         LINE#         152
  C:1117H         LINE#         153
  C:1117H         LINE#         155
  C:113BH         LINE#         156
  C:113EH         LINE#         157
  C:1141H         LINE#         158
  C:1144H         LINE#         159
  C:1147H         LINE#         160
  C:1157H         LINE#         161
  C:116EH         LINE#         162
  C:1182H         LINE#         163
  C:118FH         LINE#         164
  -------         ENDPROC       _DISPLAY_VOLTAGE
  -------         PROC          _DISPLAY_RAW_ADC
  D:0007H         SYMBOL        addr
  -------         DO            
  D:0002H         SYMBOL        vol
  -------         ENDDO         
  C:0003H         LINE#         166
  C:0003H         LINE#         167
  C:0003H         LINE#         169
  C:0008H         LINE#         170
  C:000BH         LINE#         171
  C:000EH         LINE#         172
BL51 BANKED LINKER/LOCATER V6.22                                                      02/23/2023  20:29:40  PAGE 15


  C:0011H         LINE#         173
  C:0014H         LINE#         174
  C:0026H         LINE#         175
  C:003AH         LINE#         176
  C:004EH         LINE#         177
  C:005BH         LINE#         178
  -------         ENDPROC       _DISPLAY_RAW_ADC
  -------         PROC          _DISPLAY_24C02
  D:0007H         SYMBOL        addr
  -------         DO            
  D:0007H         SYMBOL        memory
  -------         ENDDO         
  C:13DDH         LINE#         184
  C:13DDH         LINE#         185
  C:13DDH         LINE#         187
  C:13E0H         LINE#         188
  C:13E3H         LINE#         189
  C:13E6H         LINE#         190
  C:13E9H         LINE#         191
  C:13ECH         LINE#         192
  C:13EFH         LINE#         193
  C:13FBH         LINE#         194
  C:1407H         LINE#         195
  C:140FH         LINE#         196
  -------         ENDPROC       _DISPLAY_24C02
  -------         PROC          DELAY4MS
  -------         DO            
  D:0007H         SYMBOL        i
  D:0006H         SYMBOL        j
  -------         ENDDO         
  C:1746H         LINE#         201
  C:1746H         LINE#         202
  C:1746H         LINE#         205
  C:1748H         LINE#         206
  C:174AH         LINE#         208
  C:174AH         LINE#         209
  C:174CH         LINE#         210
  C:174EH         LINE#         211
  -------         ENDPROC       DELAY4MS
  -------         PROC          CEJUINIT
  C:16F1H         LINE#         220
  C:16F1H         LINE#         221
  C:16F1H         LINE#         222
  C:16F4H         LINE#         223
  C:16F7H         LINE#         224
  C:16FAH         LINE#         225
  C:16FDH         LINE#         226
  C:16FFH         LINE#         227
  C:1701H         LINE#         228
  -------         ENDPROC       CEJUINIT
  -------         PROC          CEJU
  -------         DO            
  D:0005H         SYMBOL        times
  D:0006H         SYMBOL        juli
  -------         ENDDO         
  C:11F9H         LINE#         232
  C:11F9H         LINE#         233
BL51 BANKED LINKER/LOCATER V6.22                                                      02/23/2023  20:29:40  PAGE 16


  C:11F9H         LINE#         234
  C:11FBH         LINE#         236
  C:11FEH         LINE#         237
  C:1200H         LINE#         238
  C:1206H         LINE#         239
  C:1206H         LINE#         240
  C:1209H         LINE#         241
  C:120BH         LINE#         242
  C:120DH         LINE#         243
  C:120FH         LINE#         244
  C:1218H         LINE#         245
  C:121EH         LINE#         246
  C:1227H         LINE#         247
  C:1247H         LINE#         248
  C:1249H         LINE#         249
  C:1249H         LINE#         250
  -------         ENDPROC       CEJU
  -------         PROC          DISPLAY_DISTANCE
  -------         DO            
  D:0002H         SYMBOL        distance
  -------         ENDDO         
  C:129BH         LINE#         253
  C:129BH         LINE#         254
  C:129BH         LINE#         256
  C:12A2H         LINE#         257
  C:12A5H         LINE#         258
  C:12A8H         LINE#         259
  C:12ABH         LINE#         260
  C:12AEH         LINE#         261
  C:12B1H         LINE#         262
  C:12C1H         LINE#         263
  C:12D5H         LINE#         264
  C:12E2H         LINE#         265
  -------         ENDPROC       DISPLAY_DISTANCE
  -------         PROC          READ_KEY
  -------         DO            
  D:0006H         SYMBOL        trig
  D:0007H         SYMBOL        key_val
  -------         ENDDO         
  C:0D2DH         LINE#         270
  C:0D2DH         LINE#         271
  C:0D2DH         LINE#         272
  C:0D2FH         LINE#         274
  C:0D2FH         LINE#         275
  C:0D37H         LINE#         276
  C:0D41H         LINE#         277
  C:0D4BH         LINE#         278
  C:0D55H         LINE#         279
  C:0D5FH         LINE#         280
  C:0D67H         LINE#         281
  C:0D71H         LINE#         282
  C:0D7BH         LINE#         283
  C:0D85H         LINE#         284
  C:0D8FH         LINE#         285
  C:0D97H         LINE#         286
  C:0DA1H         LINE#         287
  C:0DABH         LINE#         288
BL51 BANKED LINKER/LOCATER V6.22                                                      02/23/2023  20:29:40  PAGE 17


  C:0DB5H         LINE#         289
  C:0DBFH         LINE#         290
  C:0DC7H         LINE#         291
  C:0DD1H         LINE#         292
  C:0DDBH         LINE#         293
  C:0DE5H         LINE#         294
  C:0DEFH         LINE#         296
  C:0DF4H         LINE#         297
  C:0DF6H         LINE#         298
  -------         ENDPROC       READ_KEY
  -------         PROC          DISPLAY_KEY
  -------         DO            
  D:0023H         SYMBOL        num_tick
  D:0002H         SYMBOL        dis_num
  -------         ENDDO         
  C:0F5BH         LINE#         301
  C:0F5BH         LINE#         302
  C:0F5BH         LINE#         306
  C:0F61H         LINE#         307
  C:0F61H         LINE#         308
  C:0F66H         LINE#         309
  C:0F66H         LINE#         310
  C:0F6EH         LINE#         311
  C:0F7FH         LINE#         312
  C:0F81H         LINE#         313
  C:0F86H         LINE#         314
  C:0F86H         LINE#         315
  C:0F8EH         LINE#         316
  C:0FA0H         LINE#         317
  C:0FA2H         LINE#         319
  C:0FA2H         LINE#         320
  C:0FA6H         LINE#         321
  C:0FA6H         LINE#         322
  C:0FA6H         LINE#         324
  C:0FBAH         LINE#         325
  C:0FC7H         LINE#         326
  C:0FCAH         LINE#         327
  C:0FCDH         LINE#         328
  C:0FD0H         LINE#         329
  C:0FD3H         LINE#         330
  C:0FE7H         LINE#         331
  C:0FF4H         LINE#         332
  -------         ENDPROC       DISPLAY_KEY
  -------         PROC          FREQUENCEINIT
  C:1702H         LINE#         339
  C:1702H         LINE#         340
  C:1702H         LINE#         341
  C:1705H         LINE#         342
  C:1708H         LINE#         343
  C:170BH         LINE#         344
  C:170EH         LINE#         345
  C:1710H         LINE#         346
  C:1712H         LINE#         347
  -------         ENDPROC       FREQUENCEINIT
  -------         PROC          FREQUENCE
  -------         DO            
  D:0025H         SYMBOL        tick_500ms
BL51 BANKED LINKER/LOCATER V6.22                                                      02/23/2023  20:29:40  PAGE 18


  -------         ENDDO         
  C:1410H         LINE#         351
  C:1410H         LINE#         352
  C:1410H         LINE#         354
  C:1418H         LINE#         355
  C:1420H         LINE#         356
  C:1420H         LINE#         357
  C:1422H         LINE#         358
  C:1427H         LINE#         359
  C:142FH         LINE#         360
  C:143BH         LINE#         361
  C:143EH         LINE#         362
  C:1440H         LINE#         363
  C:1442H         LINE#         364
  C:1442H         LINE#         365
  -------         ENDPROC       FREQUENCE
  -------         PROC          DISPLAY_FREQUENCE
  C:0DF7H         LINE#         367
  C:0DF7H         LINE#         368
  C:0DF7H         LINE#         369
  C:0DFAH         LINE#         370
  C:0DFDH         LINE#         371
  C:0E00H         LINE#         372
  C:0E26H         LINE#         373
  C:0E4CH         LINE#         374
  C:0E72H         LINE#         375
  C:0E98H         LINE#         376
  C:0EB6H         LINE#         377
  -------         ENDPROC       DISPLAY_FREQUENCE
  -------         PROC          TASK1_INIT
  C:174FH         LINE#         383
  C:174FH         LINE#         384
  C:174FH         LINE#         386
  -------         ENDPROC       TASK1_INIT
  -------         PROC          TASK1_LOOP
  C:1690H         LINE#         390
  C:1690H         LINE#         391
  C:1690H         LINE#         392
  C:169BH         LINE#         393
  C:16A0H         LINE#         394
  C:16A3H         LINE#         395
  C:16A3H         LINE#         396
  -------         ENDPROC       TASK1_LOOP
  -------         PROC          TASK2_LOOP
  C:16A4H         LINE#         403
  C:16A4H         LINE#         404
  C:16A4H         LINE#         405
  C:16AFH         LINE#         406
  C:16B4H         LINE#         407
  C:16B7H         LINE#         408
  C:16B7H         LINE#         409
  -------         ENDPROC       TASK2_LOOP
  -------         PROC          TASK3_INIT
  C:1769H         LINE#         415
  C:1769H         LINE#         416
  C:1769H         LINE#         417
  -------         ENDPROC       TASK3_INIT
BL51 BANKED LINKER/LOCATER V6.22                                                      02/23/2023  20:29:40  PAGE 19


  -------         PROC          TASK3_LOOP
  C:1623H         LINE#         421
  C:1623H         LINE#         422
  C:1623H         LINE#         423
  C:1626H         LINE#         424
  C:1631H         LINE#         425
  C:1636H         LINE#         426
  C:1639H         LINE#         427
  C:1639H         LINE#         428
  -------         ENDPROC       TASK3_LOOP
  -------         PROC          TASK4_INIT
  C:1758H         LINE#         433
  C:1758H         LINE#         434
  C:1758H         LINE#         435
  C:1760H         LINE#         436
  -------         ENDPROC       TASK4_INIT
  -------         PROC          TASK4_LOOP
  C:176CH         LINE#         439
  C:176CH         LINE#         440
  C:176CH         LINE#         441
  -------         ENDPROC       TASK4_LOOP
  -------         PROC          TASK5_LOOP
  C:16B8H         LINE#         447
  C:16B8H         LINE#         448
  C:16B8H         LINE#         449
  C:16C3H         LINE#         450
  C:16C8H         LINE#         451
  C:16CBH         LINE#         452
  C:16CBH         LINE#         453
  -------         ENDPROC       TASK5_LOOP
  -------         PROC          TASK6_INIT
  C:176FH         LINE#         456
  C:176FH         LINE#         457
  C:176FH         LINE#         458
  -------         ENDPROC       TASK6_INIT
  -------         PROC          TASK6_LOOP
  C:0FF5H         LINE#         462
  C:0FF5H         LINE#         463
  C:0FF5H         LINE#         464
  C:1003H         LINE#         465
  C:1008H         LINE#         466
  C:100BH         LINE#         467
  C:100EH         LINE#         468
  C:1011H         LINE#         469
  C:1014H         LINE#         470
  C:1017H         LINE#         471
  C:101AH         LINE#         472
  C:101DH         LINE#         473
  C:1020H         LINE#         474
  C:1034H         LINE#         475
  C:108AH         LINE#         476
  C:108AH         LINE#         477
  -------         ENDPROC       TASK6_LOOP
  -------         PROC          TASK7_LOOP
  C:1650H         LINE#         481
  C:1650H         LINE#         482
  C:1650H         LINE#         483
BL51 BANKED LINKER/LOCATER V6.22                                                      02/23/2023  20:29:40  PAGE 20


  C:165BH         LINE#         484
  C:1660H         LINE#         485
  C:1665H         LINE#         486
  C:1665H         LINE#         487
  -------         ENDPROC       TASK7_LOOP
  -------         PROC          TASK8_LOOP
  -------         DO            
  D:0027H         SYMBOL        count_8
  -------         ENDDO         
  C:0C17H         LINE#         490
  C:0C17H         LINE#         491
  C:0C17H         LINE#         494
  C:0C25H         LINE#         495
  C:0C2AH         LINE#         496
  C:0C42H         LINE#         497
  C:0C5CH         LINE#         498
  C:0C76H         LINE#         499
  C:0C90H         LINE#         500
  C:0CAAH         LINE#         501
  C:0CC4H         LINE#         502
  C:0CDEH         LINE#         503
  C:0CF8H         LINE#         504
  C:0CFBH         LINE#         505
  C:0CFEH         LINE#         506
  C:0D01H         LINE#         507
  C:0D04H         LINE#         508
  C:0D07H         LINE#         509
  C:0D0AH         LINE#         510
  C:0D0DH         LINE#         511
  C:0D1AH         LINE#         512
  C:0D2CH         LINE#         513
  C:0D2CH         LINE#         514
  -------         ENDPROC       TASK8_LOOP
  -------         PROC          TASK9_INIT
  C:173CH         LINE#         518
  C:173CH         LINE#         519
  C:173CH         LINE#         520
  C:1743H         LINE#         521
  -------         ENDPROC       TASK9_INIT
  -------         PROC          TASK9_LOOP
  C:1666H         LINE#         525
  C:1666H         LINE#         526
  C:1666H         LINE#         527
  C:1671H         LINE#         528
  C:1676H         LINE#         529
  C:167BH         LINE#         530
  C:167BH         LINE#         531
  -------         ENDPROC       TASK9_LOOP
  -------         PROC          TASK_CONTROL_CENTER
  C:15DCH         LINE#         535
  C:15DCH         LINE#         536
  C:15DCH         LINE#         537
  C:15DFH         LINE#         538
  C:15E4H         LINE#         539
  C:15E4H         LINE#         540
  C:15E8H         LINE#         541
  C:15E8H         LINE#         542
BL51 BANKED LINKER/LOCATER V6.22                                                      02/23/2023  20:29:40  PAGE 21


  C:15F4H         LINE#         544
  -------         ENDPROC       TASK_CONTROL_CENTER
  -------         PROC          MAIN
  C:0EB7H         LINE#         548
  C:0EB7H         LINE#         549
  C:0EB7H         LINE#         551
  C:0EC0H         LINE#         552
  C:0EC7H         LINE#         556
  C:0ECAH         LINE#         558
  C:0ECAH         LINE#         559
  C:0ECAH         LINE#         561
  C:0ECDH         LINE#         562
  C:0ECDH         LINE#         564
  C:0ED3H         LINE#         565
  C:0ED3H         LINE#         566
  C:0ED5H         LINE#         567
  C:0ED5H         LINE#         570
  C:0EDBH         LINE#         571
  C:0EDBH         LINE#         572
  C:0EE4H         LINE#         573
  C:0EEBH         LINE#         574
  C:0EEBH         LINE#         579
  C:0EF3H         LINE#         582
  C:0EFBH         LINE#         585
  C:0F03H         LINE#         588
  C:0F0BH         LINE#         591
  C:0F13H         LINE#         594
  C:0F15H         LINE#         595
  C:0F15H         LINE#         599
  C:0F1DH         LINE#         601
  C:0F25H         LINE#         603
  C:0F2DH         LINE#         605
  C:0F35H         LINE#         607
  C:0F3DH         LINE#         609
  C:0F45H         LINE#         611
  C:0F4DH         LINE#         613
  C:0F55H         LINE#         615
  C:0F58H         LINE#         617
  -------         ENDPROC       MAIN
  -------         PROC          SERVER
  -------         DO            
  D:0029H         SYMBOL        tick_8ms
  -------         ENDDO         
  C:0AFBH         LINE#         624
  C:0B12H         LINE#         628
  C:0B1CH         LINE#         629
  C:0B28H         LINE#         630
  C:0B2BH         LINE#         633
  C:0B42H         LINE#         635
  C:0B59H         LINE#         637
  C:0B70H         LINE#         639
  C:0B87H         LINE#         641
  C:0B9EH         LINE#         643
  C:0BB5H         LINE#         645
  C:0BCCH         LINE#         647
  C:0BE3H         LINE#         649
  C:0BFAH         LINE#         653
BL51 BANKED LINKER/LOCATER V6.22                                                      02/23/2023  20:29:40  PAGE 22


  C:0C02H         LINE#         654
  -------         ENDPROC       SERVER
  -------         ENDMOD        MAIN

  -------         MODULE        ONEWIRE
  C:0000H         SYMBOL        _ICE_DUMMY_
  D:0090H         PUBLIC        P1
  D:00B0H         PUBLIC        P3
  C:15C2H         PUBLIC        Read_DS18B20
  D:00A8H         PUBLIC        IE
  C:15ACH         PUBLIC        _Delay_OneWire
  C:1552H         PUBLIC        _Write_DS18B20
  B:0090H.4       PUBLIC        DQ
  D:00B8H         PUBLIC        IP
  C:14C6H         PUBLIC        init_ds18b20
  D:0098H         PUBLIC        SCON
  D:0088H         PUBLIC        TCON
  C:124AH         PUBLIC        read_temp
  D:00C8H         PUBLIC        T2CON
  D:00D0H         PUBLIC        PSW
  C:15A8H         SYMBOL        L?0020
  -------         PROC          L?0019
  -------         ENDPROC       L?0019
  C:15A8H         SYMBOL        L?0020
  -------         PROC          _DELAY_ONEWIRE
  D:0006H         SYMBOL        t
  -------         DO            
  D:0005H         SYMBOL        i
  -------         ENDDO         
  C:15ACH         LINE#         7
  C:15ACH         LINE#         8
  C:15ACH         LINE#         10
  C:15B6H         LINE#         11
  C:15B6H         LINE#         12
  C:15C1H         LINE#         13
  C:15C1H         LINE#         14
  -------         ENDPROC       _DELAY_ONEWIRE
  -------         PROC          _WRITE_DS18B20
  D:0001H         SYMBOL        dat
  -------         DO            
  D:0003H         SYMBOL        i
  -------         ENDDO         
  C:1552H         LINE#         17
  C:1554H         LINE#         18
  C:1554H         LINE#         20
  C:1556H         LINE#         21
  C:1556H         LINE#         22
  C:1558H         LINE#         23
  C:155CH         LINE#         24
  C:155FH         LINE#         25
  C:1561H         LINE#         26
  C:1565H         LINE#         27
  C:1569H         LINE#         28
  -------         ENDPROC       _WRITE_DS18B20
  -------         PROC          READ_DS18B20
  -------         DO            
  D:0003H         SYMBOL        i
BL51 BANKED LINKER/LOCATER V6.22                                                      02/23/2023  20:29:40  PAGE 23


  D:0004H         SYMBOL        dat
  -------         ENDDO         
  C:15C2H         LINE#         32
  C:15C2H         LINE#         33
  C:15C2H         LINE#         37
  C:15C4H         LINE#         38
  C:15C4H         LINE#         39
  C:15C6H         LINE#         40
  C:15CAH         LINE#         41
  C:15CCH         LINE#         42
  C:15CFH         LINE#         43
  C:15CFH         LINE#         44
  C:15D2H         LINE#         45
  C:15D2H         LINE#         46
  C:15D5H         LINE#         47
  C:15D9H         LINE#         48
  C:15DBH         LINE#         49
  -------         ENDPROC       READ_DS18B20
  -------         PROC          INIT_DS18B20
  -------         DO            
  B:0021H.3       SYMBOL        initflag
  -------         ENDDO         
  C:14C6H         LINE#         52
  C:14C6H         LINE#         53
  C:14C6H         LINE#         54
  C:14C8H         LINE#         56
  C:14CAH         LINE#         57
  C:14D1H         LINE#         58
  C:14D3H         LINE#         59
  C:14DAH         LINE#         60
  C:14DCH         LINE#         61
  C:14E3H         LINE#         62
  C:14E7H         LINE#         63
  C:14EAH         LINE#         65
  C:14ECH         LINE#         66
  -------         ENDPROC       INIT_DS18B20
  -------         PROC          READ_TEMP
  -------         DO            
  D:0001H         SYMBOL        low
  D:0007H         SYMBOL        high
  D:0006H         SYMBOL        temp
  D:0004H         SYMBOL        tem
  -------         ENDDO         
  C:124AH         LINE#         69
  C:124AH         LINE#         70
  C:124AH         LINE#         74
  C:124DH         LINE#         75
  C:1252H         LINE#         76
  C:1257H         LINE#         77
  C:125EH         LINE#         79
  C:1261H         LINE#         80
  C:1266H         LINE#         81
  C:126BH         LINE#         82
  C:1272H         LINE#         84
  C:1277H         LINE#         85
  C:127AH         LINE#         87
  C:127DH         LINE#         88
BL51 BANKED LINKER/LOCATER V6.22                                                      02/23/2023  20:29:40  PAGE 24


  C:1289H         LINE#         89
  C:129AH         LINE#         91
  C:129AH         LINE#         92
  -------         ENDPROC       READ_TEMP
  -------         ENDMOD        ONEWIRE

  -------         MODULE        ?C?FPMUL
  C:0066H         PUBLIC        ?C?FPMUL
  -------         ENDMOD        ?C?FPMUL

  -------         MODULE        ?C?FPDIV
  C:016FH         PUBLIC        ?C?FPDIV
  -------         ENDMOD        ?C?FPDIV

  -------         MODULE        ?C?FCAST
  C:0216H         PUBLIC        ?C?FCASTC
  C:0211H         PUBLIC        ?C?FCASTI
  C:020CH         PUBLIC        ?C?FCASTL
  -------         ENDMOD        ?C?FCAST

  -------         MODULE        ?C?CASTF
  C:024AH         PUBLIC        ?C?CASTF
  -------         ENDMOD        ?C?CASTF

  -------         MODULE        PRINTF
  D:004AH         PUBLIC        ?_PRINTF?BYTE
  D:004AH         PUBLIC        ?_SPRINTF?BYTE
  C:06EEH         PUBLIC        _PRINTF
  C:06E8H         PUBLIC        _SPRINTF
  -------         ENDMOD        PRINTF

  -------         MODULE        ?C?FPROUND
  C:02CBH         PUBLIC        ?C?FPROUND
  -------         ENDMOD        ?C?FPROUND

  -------         MODULE        ?C?FPCONVERT
  C:02FAH         PUBLIC        ?C?FPCONVERT
  -------         ENDMOD        ?C?FPCONVERT

  -------         MODULE        ?C?FPADD
  C:0404H         PUBLIC        ?C?FPADD
  C:0400H         PUBLIC        ?C?FPSUB
  -------         ENDMOD        ?C?FPADD

  -------         MODULE        ?C?FTNPWR
  C:0525H         PUBLIC        ?C?FTNPWR
  -------         ENDMOD        ?C?FTNPWR

  -------         MODULE        ?C?CLDPTR
  C:0565H         PUBLIC        ?C?CLDPTR
  -------         ENDMOD        ?C?CLDPTR

  -------         MODULE        ?C?CLDOPTR
  C:057EH         PUBLIC        ?C?CLDOPTR
  -------         ENDMOD        ?C?CLDOPTR

  -------         MODULE        ?C?CSTPTR
BL51 BANKED LINKER/LOCATER V6.22                                                      02/23/2023  20:29:40  PAGE 25


  C:05ABH         PUBLIC        ?C?CSTPTR
  -------         ENDMOD        ?C?CSTPTR

  -------         MODULE        ?C?UIDIV
  C:05BDH         PUBLIC        ?C?UIDIV
  -------         ENDMOD        ?C?UIDIV

  -------         MODULE        ?C?SIDIV
  C:0612H         PUBLIC        ?C?SIDIV
  -------         ENDMOD        ?C?SIDIV

  -------         MODULE        ?C?LNEG
  C:0648H         PUBLIC        ?C?LNEG
  -------         ENDMOD        ?C?LNEG

  -------         MODULE        ?C?PLDIIDATA
  C:0656H         PUBLIC        ?C?PLDIIDATA
  -------         ENDMOD        ?C?PLDIIDATA

  -------         MODULE        ?C?CCASE
  C:0666H         PUBLIC        ?C?CCASE
  -------         ENDMOD        ?C?CCASE

*** WARNING L16: UNCALLED SEGMENT, IGNORED FOR OVERLAY PROCESS
    SEGMENT: ?PR?IIC_SENDACK?IIC

*** WARNING L16: UNCALLED SEGMENT, IGNORED FOR OVERLAY PROCESS
    SEGMENT: ?PR?_DAC?IIC

*** WARNING L16: UNCALLED SEGMENT, IGNORED FOR OVERLAY PROCESS
    SEGMENT: ?PR?_DISPLAY_VOLTAGE?MAIN

Program Size: data=78.5 xdata=0 code=6001
LINK/LOCATE RUN COMPLETE.  3 WARNING(S),  0 ERROR(S)
