BL51 BANKED LINKER/LOCATER V6.22                                                        06/17/2022  13:09:06  PAGE 1


BL51 BANKED LINKER/LOCATER V6.22, INVOKED BY:
D:\KEIL5\C51\BIN\BL51.EXE .\Objects\ds1302.obj, .\Objects\iic.obj, .\Objects\main.obj, .\Objects\onewire.obj TO .\Object
>> s\test PRINT (.\Listings\test.m51) RAMSIZE (256)


MEMORY MODEL: SMALL WITH FLOATING POINT ARITHMETIC


INPUT MODULES INCLUDED:
  .\Objects\ds1302.obj (DS1302)
  .\Objects\iic.obj (IIC)
  .\Objects\main.obj (MAIN)
  .\Objects\onewire.obj (ONEWIRE)
  D:\KEIL5\C51\LIB\C51FPS.LIB (?C?FPMUL)
  D:\KEIL5\C51\LIB\C51FPS.LIB (?C?FPDIV)
  D:\KEIL5\C51\LIB\C51FPS.LIB (?C?FCAST)
  D:\KEIL5\C51\LIB\C51FPS.LIB (?C?CASTF)
  D:\KEIL5\C51\LIB\C51FPS.LIB (PRINTF)
  D:\KEIL5\C51\LIB\C51FPS.LIB (?C?FPGETOPN)
  D:\KEIL5\C51\LIB\C51FPS.LIB (?C?FPROUND)
  D:\KEIL5\C51\LIB\C51FPS.LIB (?C?FPCONVERT)
  D:\KEIL5\C51\LIB\C51FPS.LIB (?C?FPADD)
  D:\KEIL5\C51\LIB\C51FPS.LIB (?C?FTNPWR)
  D:\KEIL5\C51\LIB\C51S.LIB (?C_STARTUP)
  D:\KEIL5\C51\LIB\C51S.LIB (?C?CLDPTR)
  D:\KEIL5\C51\LIB\C51S.LIB (?C?CLDOPTR)
  D:\KEIL5\C51\LIB\C51S.LIB (?C?CSTPTR)
  D:\KEIL5\C51\LIB\C51S.LIB (?C?UIDIV)
  D:\KEIL5\C51\LIB\C51S.LIB (?C?SIDIV)
  D:\KEIL5\C51\LIB\C51S.LIB (?C?LNEG)
  D:\KEIL5\C51\LIB\C51S.LIB (?C?PLDIIDATA)
  D:\KEIL5\C51\LIB\C51S.LIB (?C?CCASE)


LINK MAP OF MODULE:  .\Objects\test (DS1302)


            TYPE    BASE      LENGTH    RELOCATION   SEGMENT NAME
            -----------------------------------------------------

            * * * * * * *   D A T A   M E M O R Y   * * * * * * *
            REG     0000H     0008H     ABSOLUTE     "REG BANK 0"
            DATA    0008H     000DH     UNIT         ?DT?MAIN
            DATA    0015H     0003H     UNIT         _DATA_GROUP_
            DATA    0018H     0002H     UNIT         ?DT?DISPLAY_DISTANCE?MAIN
                    001AH     0006H                  *** GAP ***
            BIT     0020H.0   0001H.2   UNIT         ?BI?MAIN
            BIT     0021H.2   0001H.1   UNIT         ?BI?PRINTF?PRINTF
            BIT     0022H.3   0000H.1   UNIT         ?BI?IIC_SENDACK?IIC
            BIT     0022H.4   0000H.1   UNIT         ?BI?IIC_WAITACK?IIC
            BIT     0022H.5   0000H.1   UNIT         _BIT_GROUP_
                    0022H.6   0000H.2                *** GAP ***
            DATA    0023H     001CH     UNIT         ?DT?PRINTF?PRINTF
            IDATA   003FH     0001H     UNIT         ?STACK

            * * * * * * *   C O D E   M E M O R Y   * * * * * * *
            CODE    0000H     0003H     ABSOLUTE     
            CODE    0003H     005BH     UNIT         ?PR?DISPLAY_DISTANCE?MAIN
BL51 BANKED LINKER/LOCATER V6.22                                                      06/17/2022  13:09:06  PAGE 2


                    005EH     0005H                  *** GAP ***
            CODE    0063H     0003H     ABSOLUTE     
            CODE    0066H     0626H     UNIT         ?C?LIB_CODE
            CODE    068CH     046FH     UNIT         ?PR?PRINTF?PRINTF
            CODE    0AFBH     00CAH     UNIT         ?PR?READ_KEY?MAIN
            CODE    0BC5H     0079H     UNIT         ?PR?_DISPLAY_VOLTAGE?MAIN
            CODE    0C3EH     0069H     UNIT         ?PR?DISPLAY_TEMP?MAIN
            CODE    0CA7H     0051H     UNIT         ?PR?CEJU?MAIN
            CODE    0CF8H     0051H     UNIT         ?PR?_READ_DS18B20?ONEWIRE
            CODE    0D49H     0046H     UNIT         ?PR?READ_DS1302?MAIN
            CODE    0D8FH     0041H     UNIT         ?PR?BASIC?MAIN
            CODE    0DD0H     003EH     UNIT         ?CO?MAIN
            CODE    0E0EH     003BH     UNIT         ?PR?SERVER?MAIN
            CODE    0E49H     0034H     UNIT         ?PR?_READ_DS1302_BYTE?DS1302
            CODE    0E7DH     0033H     UNIT         ?PR?_DISPLAY_24C02?MAIN
            CODE    0EB0H     002EH     UNIT         ?PR?_READ_24C02?IIC
            CODE    0EDEH     002CH     UNIT         ?PR?_IIC_SENDBYTE?IIC
            CODE    0F0AH     0029H     UNIT         ?PR?_CONFIG_DS1302?MAIN
            CODE    0F33H     0027H     UNIT         ?PR?MAIN?MAIN
            CODE    0F5AH     0027H     UNIT         ?PR?INIT_DS18B20?ONEWIRE
            CODE    0F81H     0024H     UNIT         ?PR?_ADC?IIC
            CODE    0FA5H     0022H     UNIT         ?PR?_WRITE_24C02?IIC
            CODE    0FC7H     001FH     UNIT         ?PR?_SMG?MAIN
            CODE    0FE6H     001EH     UNIT         ?PR?_WRITE_DS18B20?ONEWIRE
            CODE    1004H     001DH     UNIT         ?PR?IIC_RECBYTE?IIC
            CODE    1021H     001BH     UNIT         ?PR?IIC_WAITACK?IIC
            CODE    103CH     001AH     UNIT         ?PR?_DELAY_ONEWIRE?ONEWIRE
            CODE    1056H     001AH     UNIT         ?PR?READ_DS18B20?ONEWIRE
            CODE    1070H     0017H     UNIT         ?PR?IIC_SENDACK?IIC
            CODE    1087H     0017H     UNIT         ?PR?UARTINIT?MAIN
            CODE    109EH     0016H     UNIT         ?PR?_DAC?IIC
            CODE    10B4H     0014H     UNIT         ?PR?_WRITE_DS1302_BYTE?DS1302
            CODE    10C8H     0013H     UNIT         ?PR?_WRITE_DS1302?DS1302
            CODE    10DBH     0012H     UNIT         ?PR?TIMER2INIT?MAIN
            CODE    10EDH     0011H     UNIT         ?PR?TIMER0INIT?MAIN
            CODE    10FEH     000FH     UNIT         ?PR?IIC_START?IIC
            CODE    110DH     000EH     UNIT         ?PR?_IIC_DELAY?IIC
            CODE    111BH     000CH     UNIT         ?PR?IIC_STOP?IIC
            CODE    1127H     000CH     UNIT         ?PR?SCHEDULE?MAIN
            CODE    1133H     000CH     UNIT         ?C_C51STARTUP
            CODE    113FH     0009H     UNIT         ?PR?DELAY4MS?MAIN
            CODE    1148H     0008H     UNIT         ?PR?_PUTCHAR?MAIN



OVERLAY MAP OF MODULE:   .\Objects\test (DS1302)


SEGMENT                                  BIT_GROUP          DATA_GROUP 
  +--> CALLED SEGMENT                 START    LENGTH     START    LENGTH
-------------------------------------------------------------------------
?PR?SERVER?MAIN                       -----    -----      -----    -----
  +--> ?PR?_SMG?MAIN
  +--> ?PR?BASIC?MAIN

?PR?_SMG?MAIN                         -----    -----      -----    -----
  +--> ?CO?MAIN
BL51 BANKED LINKER/LOCATER V6.22                                                      06/17/2022  13:09:06  PAGE 3



*** NEW ROOT ***************************************************

?C_C51STARTUP                         -----    -----      -----    -----
  +--> ?PR?MAIN?MAIN

?PR?MAIN?MAIN                         -----    -----      -----    -----
  +--> ?PR?_CONFIG_DS1302?MAIN
  +--> ?PR?TIMER2INIT?MAIN
  +--> ?PR?UARTINIT?MAIN
  +--> ?PR?READ_KEY?MAIN
  +--> ?PR?SCHEDULE?MAIN

?PR?_CONFIG_DS1302?MAIN               -----    -----      0015H    0003H
  +--> ?PR?_WRITE_DS1302_BYTE?DS1302

?PR?_WRITE_DS1302_BYTE?DS1302         -----    -----      -----    -----
  +--> ?PR?_WRITE_DS1302?DS1302

?PR?READ_KEY?MAIN                     0022H.5  0000H.1    -----    -----

?PR?SCHEDULE?MAIN                     -----    -----      -----    -----
  +--> ?PR?DISPLAY_TEMP?MAIN

?PR?DISPLAY_TEMP?MAIN                 -----    -----      -----    -----
  +--> ?PR?_READ_DS18B20?ONEWIRE

?PR?_READ_DS18B20?ONEWIRE             -----    -----      -----    -----
  +--> ?PR?INIT_DS18B20?ONEWIRE
  +--> ?PR?_WRITE_DS18B20?ONEWIRE
  +--> ?PR?_DELAY_ONEWIRE?ONEWIRE
  +--> ?PR?READ_DS18B20?ONEWIRE

?PR?INIT_DS18B20?ONEWIRE              0022H.5  0000H.1    -----    -----
  +--> ?PR?_DELAY_ONEWIRE?ONEWIRE

?PR?_WRITE_DS18B20?ONEWIRE            -----    -----      -----    -----
  +--> ?PR?_DELAY_ONEWIRE?ONEWIRE

?PR?READ_DS18B20?ONEWIRE              -----    -----      -----    -----
  +--> ?PR?_DELAY_ONEWIRE?ONEWIRE



SYMBOL TABLE OF MODULE:  .\Objects\test (DS1302)

  VALUE           TYPE          NAME
  ----------------------------------

  -------         MODULE        DS1302
  C:0000H         SYMBOL        _ICE_DUMMY_
  D:0090H         PUBLIC        P1
  D:00A0H         PUBLIC        P2
  D:00B0H         PUBLIC        P3
  D:00A8H         PUBLIC        IE
  D:00B8H         PUBLIC        IP
  D:0098H         PUBLIC        SCON
BL51 BANKED LINKER/LOCATER V6.22                                                      06/17/2022  13:09:06  PAGE 4


  D:0088H         PUBLIC        TCON
  C:0E49H         PUBLIC        _Read_Ds1302_Byte
  B:00A0H.3       PUBLIC        SDA
  B:0090H.7       PUBLIC        SCK
  C:10B4H         PUBLIC        _Write_Ds1302_Byte
  D:00C8H         PUBLIC        T2CON
  C:10C8H         PUBLIC        _Write_Ds1302
  B:0090H.3       PUBLIC        RST
  D:00D0H         PUBLIC        PSW
  -------         PROC          _WRITE_DS1302
  D:0007H         SYMBOL        temp
  -------         DO            
  D:0006H         SYMBOL        i
  -------         ENDDO         
  C:10C8H         LINE#         12
  C:10C8H         LINE#         13
  C:10C8H         LINE#         15
  C:10CAH         LINE#         16
  C:10CAH         LINE#         17
  C:10CCH         LINE#         18
  C:10D0H         LINE#         19
  C:10D4H         LINE#         20
  C:10D6H         LINE#         21
  C:10DAH         LINE#         22
  -------         ENDPROC       _WRITE_DS1302
  -------         PROC          _WRITE_DS1302_BYTE
  D:0007H         SYMBOL        address
  D:0005H         SYMBOL        dat
  C:10B4H         LINE#         25
  C:10B4H         LINE#         26
  C:10B4H         LINE#         27
  C:10B7H         LINE#         28
  C:10BAH         LINE#         29
  C:10BDH         LINE#         30
  C:10C0H         LINE#         31
  C:10C5H         LINE#         32
  C:10C7H         LINE#         33
  -------         ENDPROC       _WRITE_DS1302_BYTE
  -------         PROC          _READ_DS1302_BYTE
  D:0007H         SYMBOL        address
  -------         DO            
  D:0007H         SYMBOL        i
  D:0005H         SYMBOL        temp
  -------         ENDDO         
  C:0E49H         LINE#         36
  C:0E49H         LINE#         37
  C:0E49H         LINE#         38
  C:0E4BH         LINE#         39
  C:0E4EH         LINE#         40
  C:0E51H         LINE#         41
  C:0E54H         LINE#         42
  C:0E57H         LINE#         43
  C:0E59H         LINE#         44
  C:0E59H         LINE#         45
  C:0E5BH         LINE#         46
  C:0E5FH         LINE#         47
  C:0E62H         LINE#         48
BL51 BANKED LINKER/LOCATER V6.22                                                      06/17/2022  13:09:06  PAGE 5


  C:0E65H         LINE#         49
  C:0E67H         LINE#         50
  C:0E6BH         LINE#         51
  C:0E6EH         LINE#         52
  C:0E71H         LINE#         53
  C:0E74H         LINE#         54
  C:0E77H         LINE#         55
  C:0E7AH         LINE#         56
  C:0E7CH         LINE#         57
  -------         ENDPROC       _READ_DS1302_BYTE
  -------         ENDMOD        DS1302

  -------         MODULE        IIC
  C:0000H         SYMBOL        _ICE_DUMMY_
  D:0090H         PUBLIC        P1
  D:00A0H         PUBLIC        P2
  D:00B0H         PUBLIC        P3
  D:00A8H         PUBLIC        IE
  D:00B8H         PUBLIC        IP
  C:1111H         PUBLIC        _IIC_Delay
  C:0F81H         PUBLIC        _adc
  C:109EH         PUBLIC        _dac
  C:0EB0H         PUBLIC        _read_24c02
  D:0098H         PUBLIC        SCON
  D:0088H         PUBLIC        TCON
  C:0FA5H         PUBLIC        _write_24c02
  C:10FEH         PUBLIC        IIC_Start
  C:1070H         PUBLIC        IIC_SendAck
  B:00A0H.1       PUBLIC        SDA
  C:0EDEH         PUBLIC        _IIC_SendByte
  C:102BH         PUBLIC        IIC_WaitAck
  C:111BH         PUBLIC        IIC_Stop
  B:00A0H.0       PUBLIC        SCL
  D:00C8H         PUBLIC        T2CON
  C:1004H         PUBLIC        IIC_RecByte
  D:00D0H         PUBLIC        PSW
  C:110DH         SYMBOL        L?0026
  -------         PROC          L?0025
  -------         ENDPROC       L?0025
  C:110DH         SYMBOL        L?0026
  -------         PROC          _IIC_DELAY
  D:0007H         SYMBOL        i
  C:1111H         LINE#         12
  C:1111H         LINE#         13
  C:1111H         LINE#         14
  C:1114H         LINE#         15
  C:111AH         LINE#         16
  -------         ENDPROC       _IIC_DELAY
  -------         PROC          IIC_START
  C:10FEH         LINE#         19
  C:10FEH         LINE#         20
  C:10FEH         LINE#         21
  C:1100H         LINE#         22
  C:1100H         LINE#         23
  C:1103H         LINE#         24
  C:1105H         LINE#         25
  C:110AH         LINE#         26
BL51 BANKED LINKER/LOCATER V6.22                                                      06/17/2022  13:09:06  PAGE 6


  C:110CH         LINE#         27
  -------         ENDPROC       IIC_START
  -------         PROC          IIC_STOP
  C:111BH         LINE#         30
  C:111BH         LINE#         31
  C:111BH         LINE#         32
  C:111DH         LINE#         33
  C:111DH         LINE#         34
  C:1120H         LINE#         35
  C:1122H         LINE#         36
  -------         ENDPROC       IIC_STOP
  -------         PROC          IIC_SENDACK
  B:0022H.3       SYMBOL        ackbit
  C:1070H         LINE#         40
  C:1070H         LINE#         41
  C:1070H         LINE#         42
  C:1072H         LINE#         43
  C:1076H         LINE#         44
  C:107BH         LINE#         45
  C:107BH         LINE#         46
  C:107EH         LINE#         47
  C:1080H         LINE#         48
  C:1082H         LINE#         49
  -------         ENDPROC       IIC_SENDACK
  -------         PROC          L?0024
  -------         ENDPROC       L?0024
  -------         PROC          IIC_WAITACK
  -------         DO            
  B:0022H.4       SYMBOL        ackbit
  -------         ENDDO         
  C:102BH         LINE#         53
  C:102BH         LINE#         54
  C:102BH         LINE#         57
  C:102BH         LINE#         58
  C:102EH         LINE#         59
  C:1032H         LINE#         60
  C:1034H         LINE#         61
  C:1039H         LINE#         62
  C:103BH         LINE#         63
  -------         ENDPROC       IIC_WAITACK
  -------         PROC          _IIC_SENDBYTE
  D:0005H         SYMBOL        byt
  -------         DO            
  D:0004H         SYMBOL        i
  -------         ENDDO         
  C:0EDEH         LINE#         66
  C:0EE0H         LINE#         67
  C:0EE0H         LINE#         70
  C:0EE2H         LINE#         71
  C:0EE2H         LINE#         72
  C:0EE4H         LINE#         73
  C:0EE9H         LINE#         74
  C:0EF1H         LINE#         75
  C:0EF3H         LINE#         76
  C:0EF8H         LINE#         77
  C:0EFAH         LINE#         78
  C:0EFEH         LINE#         79
BL51 BANKED LINKER/LOCATER V6.22                                                      06/17/2022  13:09:06  PAGE 7


  C:0F03H         LINE#         80
  C:0F07H         LINE#         81
  C:0F09H         LINE#         82
  -------         ENDPROC       _IIC_SENDBYTE
  -------         PROC          IIC_RECBYTE
  -------         DO            
  D:0004H         SYMBOL        i
  D:0005H         SYMBOL        da
  -------         ENDDO         
  C:1004H         LINE#         85
  C:1004H         LINE#         86
  C:1004H         LINE#         88
  C:1006H         LINE#         89
  C:1006H         LINE#         90
  C:1006H         LINE#         91
  C:1009H         LINE#         92
  C:100DH         LINE#         93
  C:1013H         LINE#         94
  C:1015H         LINE#         95
  C:101AH         LINE#         96
  C:101EH         LINE#         97
  C:1020H         LINE#         98
  -------         ENDPROC       IIC_RECBYTE
  -------         PROC          _WRITE_24C02
  D:0002H         SYMBOL        addr
  D:0003H         SYMBOL        dat
  C:0FA5H         LINE#         100
  C:0FA9H         LINE#         101
  C:0FA9H         LINE#         102
  C:0FACH         LINE#         103
  C:0FB1H         LINE#         104
  C:0FB4H         LINE#         105
  C:0FB9H         LINE#         106
  C:0FBCH         LINE#         107
  C:0FC1H         LINE#         108
  C:0FC4H         LINE#         109
  -------         ENDPROC       _WRITE_24C02
  -------         PROC          _READ_24C02
  D:0003H         SYMBOL        addr
  -------         DO            
  D:0005H         SYMBOL        temp
  -------         ENDDO         
  C:0EB0H         LINE#         112
  C:0EB2H         LINE#         113
  C:0EB2H         LINE#         115
  C:0EB5H         LINE#         116
  C:0EBAH         LINE#         117
  C:0EBDH         LINE#         118
  C:0EC2H         LINE#         119
  C:0EC5H         LINE#         121
  C:0EC8H         LINE#         122
  C:0ECDH         LINE#         123
  C:0ED0H         LINE#         124
  C:0ED5H         LINE#         125
  C:0ED8H         LINE#         126
  C:0EDBH         LINE#         127
  C:0EDDH         LINE#         128
BL51 BANKED LINKER/LOCATER V6.22                                                      06/17/2022  13:09:06  PAGE 8


  -------         ENDPROC       _READ_24C02
  -------         PROC          _DAC
  D:0003H         SYMBOL        dat
  C:109EH         LINE#         130
  C:109EH         LINE#         131
  C:109EH         LINE#         132
  C:109EH         LINE#         133
  C:109EH         LINE#         134
  C:10A1H         LINE#         135
  C:10A6H         LINE#         136
  C:10A9H         LINE#         137
  C:10AEH         LINE#         138
  C:10B1H         LINE#         139
  -------         ENDPROC       _DAC
  -------         PROC          _ADC
  D:0003H         SYMBOL        addr
  -------         DO            
  D:0005H         SYMBOL        temp
  -------         ENDDO         
  C:0F81H         LINE#         142
  C:0F81H         LINE#         143
  C:0F81H         LINE#         145
  C:0F81H         LINE#         146
  C:0F81H         LINE#         147
  C:0F84H         LINE#         148
  C:0F89H         LINE#         149
  C:0F8CH         LINE#         151
  C:0F8FH         LINE#         152
  C:0F94H         LINE#         153
  C:0F97H         LINE#         154
  C:0F9CH         LINE#         155
  C:0F9FH         LINE#         156
  C:0FA2H         LINE#         157
  C:0FA4H         LINE#         158
  -------         ENDPROC       _ADC
  -------         ENDMOD        IIC

  -------         MODULE        MAIN
  C:0000H         SYMBOL        _ICE_DUMMY_
  B:0020H.0       PUBLIC        RELAY
  D:0080H         PUBLIC        P0
  D:0090H         PUBLIC        P1
  D:00A0H         PUBLIC        P2
  D:00B0H         PUBLIC        P3
  D:00C0H         PUBLIC        P4
  D:00C8H         PUBLIC        P5
  B:00A8H.7       PUBLIC        EA
  D:00E8H         PUBLIC        P6
  B:0020H.1       PUBLIC        LED1
  D:00F8H         PUBLIC        P7
  C:113FH         PUBLIC        Delay4ms
  C:0E7DH         PUBLIC        _display_24c02
  B:0020H.2       PUBLIC        LED2
  B:0020H.3       PUBLIC        LED3
  B:0020H.4       PUBLIC        LED4
  B:0020H.5       PUBLIC        LED5
  B:0020H.6       PUBLIC        LED6
BL51 BANKED LINKER/LOCATER V6.22                                                      06/17/2022  13:09:06  PAGE 9


  B:0020H.7       PUBLIC        LED7
  B:0021H.0       PUBLIC        LED8
  D:00A8H         PUBLIC        IE
  C:0C3EH         PUBLIC        display_temp
  C:0E06H         PUBLIC        T_COM
  D:00B8H         PUBLIC        IP
  C:0E0EH         PUBLIC        server
  B:0098H.1       PUBLIC        TI
  C:0D49H         PUBLIC        read_ds1302
  D:00D8H         PUBLIC        CCON
  C:0F33H         PUBLIC        main
  C:0CA7H         PUBLIC        ceju
  C:0003H         PUBLIC        display_distance
  B:0080H.0       PUBLIC        P00
  D:0099H         PUBLIC        SBUF
  B:0090H.0       PUBLIC        P10
  B:0080H.1       PUBLIC        P01
  B:0090H.1       PUBLIC        P11
  B:0080H.2       PUBLIC        P02
  B:00B0H.0       PUBLIC        P30
  B:0080H.3       PUBLIC        P03
  D:0098H         PUBLIC        SCON
  B:00B0H.1       PUBLIC        P31
  B:0080H.4       PUBLIC        P04
  C:1087H         PUBLIC        UartInit
  D:0089H         PUBLIC        TMOD
  D:0088H         PUBLIC        TCON
  B:00B0H.2       PUBLIC        P32
  B:0080H.5       PUBLIC        P05
  B:00C0H.2       PUBLIC        P42
  B:00B0H.3       PUBLIC        P33
  B:0080H.6       PUBLIC        P06
  B:00B0H.4       PUBLIC        P34
  B:0080H.7       PUBLIC        P07
  B:00C0H.4       PUBLIC        P44
  B:00B0H.5       PUBLIC        P35
  D:00AFH         PUBLIC        IE2
  D:008EH         PUBLIC        AUXR
  C:0FC7H         PUBLIC        _smg
  C:0AFBH         PUBLIC        read_key
  B:0088H.5       PUBLIC        TF0
  B:00A8H.3       PUBLIC        ET1
  C:10EDH         PUBLIC        Timer0Init
  D:0009H         PUBLIC        key_value
  D:008CH         PUBLIC        TH0
  C:10DBH         PUBLIC        Timer2Init
  D:008DH         PUBLIC        TH1
  D:00D6H         PUBLIC        T2H
  C:0DDBH         PUBLIC        t_display
  D:008AH         PUBLIC        TL0
  D:008BH         PUBLIC        TL1
  C:1127H         PUBLIC        schedule
  C:0BC5H         PUBLIC        _display_voltage
  D:00D7H         PUBLIC        T2L
  D:000AH         PUBLIC        tempreture
  B:0088H.4       PUBLIC        TR0
  B:0088H.6       PUBLIC        TR1
BL51 BANKED LINKER/LOCATER V6.22                                                      06/17/2022  13:09:06  PAGE 10


  D:000CH         PUBLIC        schedule_tick
  C:0D8FH         PUBLIC        BASIC
  B:0021H.1       PUBLIC        BUZZER
  D:000DH         PUBLIC        SMG
  C:0F0AH         PUBLIC        _config_ds1302
  D:00D0H         PUBLIC        PSW
  C:1148H         PUBLIC        _putchar
  -------         PROC          BASIC
  C:0D8FH         LINE#         25
  C:0D8FH         LINE#         26
  C:0D8FH         LINE#         27
  C:0D95H         LINE#         28
  C:0DBDH         LINE#         29
  C:0DC0H         LINE#         31
  C:0DC5H         LINE#         32
  C:0DCDH         LINE#         33
  C:0DCFH         LINE#         34
  -------         ENDPROC       BASIC
  -------         PROC          _SMG
  D:0007H         SYMBOL        wei
  D:0005H         SYMBOL        duan
  C:0FC7H         LINE#         36
  C:0FC7H         LINE#         37
  C:0FC7H         LINE#         38
  C:0FCAH         LINE#         39
  C:0FD7H         LINE#         40
  C:0FE5H         LINE#         41
  -------         ENDPROC       _SMG
  -------         PROC          TIMER2INIT
  C:10DBH         LINE#         43
  C:10DBH         LINE#         44
  C:10DBH         LINE#         45
  C:10DEH         LINE#         46
  C:10E1H         LINE#         47
  C:10E4H         LINE#         48
  C:10E7H         LINE#         49
  C:10EAH         LINE#         50
  C:10ECH         LINE#         51
  -------         ENDPROC       TIMER2INIT
  -------         PROC          UARTINIT
  C:1087H         LINE#         54
  C:1087H         LINE#         55
  C:1087H         LINE#         56
  C:108AH         LINE#         57
  C:108DH         LINE#         58
  C:1090H         LINE#         59
  C:1093H         LINE#         60
  C:1096H         LINE#         61
  C:1099H         LINE#         62
  C:109BH         LINE#         63
  C:109DH         LINE#         64
  -------         ENDPROC       UARTINIT
  -------         PROC          _PUTCHAR
  D:0007H         SYMBOL        c
  C:1148H         LINE#         66
  C:1148H         LINE#         67
  C:1148H         LINE#         68
BL51 BANKED LINKER/LOCATER V6.22                                                      06/17/2022  13:09:06  PAGE 11


  C:114AH         LINE#         69
  C:114DH         LINE#         70
  C:114FH         LINE#         71
  C:114FH         LINE#         72
  -------         ENDPROC       _PUTCHAR
  -------         PROC          _CONFIG_DS1302
  D:0015H         SYMBOL        shi
  D:0016H         SYMBOL        fen
  D:0017H         SYMBOL        miao
  C:0F0AH         LINE#         74
  C:0F10H         LINE#         75
  C:0F10H         LINE#         76
  C:0F17H         LINE#         77
  C:0F1EH         LINE#         78
  C:0F25H         LINE#         79
  C:0F2CH         LINE#         80
  -------         ENDPROC       _CONFIG_DS1302
  -------         PROC          READ_DS1302
  C:0D49H         LINE#         83
  C:0D49H         LINE#         84
  C:0D49H         LINE#         85
  C:0D54H         LINE#         86
  C:0D5EH         LINE#         87
  C:0D61H         LINE#         88
  C:0D6CH         LINE#         89
  C:0D76H         LINE#         90
  C:0D79H         LINE#         91
  C:0D84H         LINE#         92
  C:0D8EH         LINE#         93
  -------         ENDPROC       READ_DS1302
  -------         PROC          DISPLAY_TEMP
  C:0C3EH         LINE#         95
  C:0C3EH         LINE#         96
  C:0C3EH         LINE#         97
  C:0C52H         LINE#         98
  C:0C55H         LINE#         99
  C:0C58H         LINE#         100
  C:0C5BH         LINE#         101
  C:0C5EH         LINE#         102
  C:0C6EH         LINE#         103
  C:0C85H         LINE#         104
  C:0C99H         LINE#         105
  C:0CA6H         LINE#         106
  -------         ENDPROC       DISPLAY_TEMP
  -------         PROC          _DISPLAY_VOLTAGE
  D:0007H         SYMBOL        addr
  -------         DO            
  D:0002H         SYMBOL        vol
  -------         ENDDO         
  C:0BC5H         LINE#         111
  C:0BC5H         LINE#         112
  C:0BC5H         LINE#         114
  C:0BE9H         LINE#         115
  C:0BECH         LINE#         116
  C:0BEFH         LINE#         117
  C:0BF2H         LINE#         118
  C:0BF5H         LINE#         119
BL51 BANKED LINKER/LOCATER V6.22                                                      06/17/2022  13:09:06  PAGE 12


  C:0C05H         LINE#         120
  C:0C1CH         LINE#         121
  C:0C30H         LINE#         122
  C:0C3DH         LINE#         123
  -------         ENDPROC       _DISPLAY_VOLTAGE
  -------         PROC          _DISPLAY_24C02
  D:0007H         SYMBOL        addr
  -------         DO            
  D:0007H         SYMBOL        memory
  -------         ENDDO         
  C:0E7DH         LINE#         125
  C:0E7DH         LINE#         126
  C:0E7DH         LINE#         128
  C:0E80H         LINE#         129
  C:0E83H         LINE#         130
  C:0E86H         LINE#         131
  C:0E89H         LINE#         132
  C:0E8CH         LINE#         133
  C:0E8FH         LINE#         134
  C:0E9BH         LINE#         135
  C:0EA7H         LINE#         136
  C:0EAFH         LINE#         137
  -------         ENDPROC       _DISPLAY_24C02
  -------         PROC          DELAY4MS
  -------         DO            
  D:0007H         SYMBOL        i
  D:0006H         SYMBOL        j
  -------         ENDDO         
  C:113FH         LINE#         139
  C:113FH         LINE#         140
  C:113FH         LINE#         143
  C:1141H         LINE#         144
  C:1143H         LINE#         146
  C:1143H         LINE#         147
  C:1145H         LINE#         148
  C:1147H         LINE#         149
  -------         ENDPROC       DELAY4MS
  -------         PROC          TIMER0INIT
  C:10EDH         LINE#         151
  C:10EDH         LINE#         152
  C:10EDH         LINE#         153
  C:10F0H         LINE#         154
  C:10F3H         LINE#         155
  C:10F6H         LINE#         156
  C:10F9H         LINE#         157
  C:10FBH         LINE#         158
  C:10FDH         LINE#         159
  -------         ENDPROC       TIMER0INIT
  -------         PROC          CEJU
  -------         DO            
  D:0005H         SYMBOL        times
  D:0006H         SYMBOL        juli
  -------         ENDDO         
  C:0CA7H         LINE#         161
  C:0CA7H         LINE#         162
  C:0CA7H         LINE#         163
  C:0CA9H         LINE#         165
BL51 BANKED LINKER/LOCATER V6.22                                                      06/17/2022  13:09:06  PAGE 13


  C:0CACH         LINE#         166
  C:0CAEH         LINE#         167
  C:0CB4H         LINE#         168
  C:0CB4H         LINE#         169
  C:0CB7H         LINE#         170
  C:0CB9H         LINE#         171
  C:0CBBH         LINE#         172
  C:0CBDH         LINE#         173
  C:0CC6H         LINE#         174
  C:0CCCH         LINE#         175
  C:0CD5H         LINE#         176
  C:0CF5H         LINE#         177
  C:0CF7H         LINE#         178
  C:0CF7H         LINE#         179
  -------         ENDPROC       CEJU
  -------         PROC          DISPLAY_DISTANCE
  -------         DO            
  D:0018H         SYMBOL        distance
  -------         ENDDO         
  C:0003H         LINE#         182
  C:0003H         LINE#         183
  C:0003H         LINE#         185
  C:000AH         LINE#         186
  C:0019H         LINE#         187
  C:001CH         LINE#         188
  C:001FH         LINE#         189
  C:0022H         LINE#         190
  C:0025H         LINE#         191
  C:0028H         LINE#         192
  C:003CH         LINE#         193
  C:0050H         LINE#         194
  C:005DH         LINE#         195
  -------         ENDPROC       DISPLAY_DISTANCE
  -------         PROC          READ_KEY
  -------         DO            
  B:0022H.5       SYMBOL        trig
  D:0007H         SYMBOL        key_val
  -------         ENDDO         
  C:0AFBH         LINE#         197
  C:0AFBH         LINE#         198
  C:0AFBH         LINE#         199
  C:0AFDH         LINE#         201
  C:0B05H         LINE#         202
  C:0B0FH         LINE#         203
  C:0B19H         LINE#         204
  C:0B23H         LINE#         205
  C:0B2DH         LINE#         206
  C:0B35H         LINE#         207
  C:0B3FH         LINE#         208
  C:0B49H         LINE#         209
  C:0B53H         LINE#         210
  C:0B5DH         LINE#         211
  C:0B65H         LINE#         212
  C:0B6FH         LINE#         213
  C:0B79H         LINE#         214
  C:0B83H         LINE#         215
  C:0B8DH         LINE#         216
BL51 BANKED LINKER/LOCATER V6.22                                                      06/17/2022  13:09:06  PAGE 14


  C:0B95H         LINE#         217
  C:0B9FH         LINE#         218
  C:0BA9H         LINE#         219
  C:0BB3H         LINE#         220
  C:0BBDH         LINE#         222
  C:0BC2H         LINE#         223
  C:0BC4H         LINE#         224
  -------         ENDPROC       READ_KEY
  -------         PROC          SCHEDULE
  C:1127H         LINE#         226
  C:1127H         LINE#         227
  C:1127H         LINE#         228
  C:112CH         LINE#         229
  C:112CH         LINE#         230
  C:112FH         LINE#         233
  C:1132H         LINE#         238
  C:1132H         LINE#         240
  -------         ENDPROC       SCHEDULE
  -------         PROC          MAIN
  C:0F33H         LINE#         246
  C:0F33H         LINE#         247
  C:0F33H         LINE#         248
  C:0F3CH         LINE#         249
  C:0F43H         LINE#         250
  C:0F4CH         LINE#         251
  C:0F4FH         LINE#         252
  C:0F52H         LINE#         255
  C:0F52H         LINE#         256
  C:0F52H         LINE#         257
  C:0F55H         LINE#         258
  C:0F58H         LINE#         260
  -------         ENDPROC       MAIN
  -------         PROC          SERVER
  -------         DO            
  D:0008H         SYMBOL        tick_8ms
  -------         ENDDO         
  C:0E0EH         LINE#         267
  C:0E1FH         LINE#         270
  C:0E21H         LINE#         271
  C:0E2BH         LINE#         272
  C:0E37H         LINE#         273
  C:0E3AH         LINE#         274
  -------         ENDPROC       SERVER
  -------         ENDMOD        MAIN

  -------         MODULE        ONEWIRE
  C:0000H         SYMBOL        _ICE_DUMMY_
  D:0090H         PUBLIC        P1
  D:00B0H         PUBLIC        P3
  C:1056H         PUBLIC        Read_DS18B20
  D:00A8H         PUBLIC        IE
  C:1040H         PUBLIC        _Delay_OneWire
  C:0FE6H         PUBLIC        _Write_DS18B20
  B:0090H.4       PUBLIC        DQ
  D:00B8H         PUBLIC        IP
  C:0F5AH         PUBLIC        init_ds18b20
  D:0098H         PUBLIC        SCON
BL51 BANKED LINKER/LOCATER V6.22                                                      06/17/2022  13:09:06  PAGE 15


  D:0088H         PUBLIC        TCON
  C:0CF8H         PUBLIC        _read_ds18b20
  D:00C8H         PUBLIC        T2CON
  D:00D0H         PUBLIC        PSW
  C:103CH         SYMBOL        L?0020
  -------         PROC          L?0019
  -------         ENDPROC       L?0019
  C:103CH         SYMBOL        L?0020
  -------         PROC          _DELAY_ONEWIRE
  D:0006H         SYMBOL        t
  -------         DO            
  D:0005H         SYMBOL        i
  -------         ENDDO         
  C:1040H         LINE#         8
  C:1040H         LINE#         9
  C:1040H         LINE#         11
  C:104AH         LINE#         12
  C:104AH         LINE#         13
  C:1055H         LINE#         14
  C:1055H         LINE#         15
  -------         ENDPROC       _DELAY_ONEWIRE
  -------         PROC          _WRITE_DS18B20
  D:0001H         SYMBOL        dat
  -------         DO            
  D:0003H         SYMBOL        i
  -------         ENDDO         
  C:0FE6H         LINE#         18
  C:0FE8H         LINE#         19
  C:0FE8H         LINE#         21
  C:0FEAH         LINE#         22
  C:0FEAH         LINE#         23
  C:0FECH         LINE#         24
  C:0FF0H         LINE#         25
  C:0FF3H         LINE#         26
  C:0FF5H         LINE#         27
  C:0FF9H         LINE#         28
  C:0FFDH         LINE#         29
  -------         ENDPROC       _WRITE_DS18B20
  -------         PROC          READ_DS18B20
  -------         DO            
  D:0003H         SYMBOL        i
  D:0004H         SYMBOL        dat
  -------         ENDDO         
  C:1056H         LINE#         33
  C:1056H         LINE#         34
  C:1056H         LINE#         38
  C:1058H         LINE#         39
  C:1058H         LINE#         40
  C:105AH         LINE#         41
  C:105EH         LINE#         42
  C:1060H         LINE#         43
  C:1063H         LINE#         44
  C:1063H         LINE#         45
  C:1066H         LINE#         46
  C:1066H         LINE#         47
  C:1069H         LINE#         48
  C:106DH         LINE#         49
BL51 BANKED LINKER/LOCATER V6.22                                                      06/17/2022  13:09:06  PAGE 16


  C:106FH         LINE#         50
  -------         ENDPROC       READ_DS18B20
  -------         PROC          INIT_DS18B20
  -------         DO            
  B:0022H.5       SYMBOL        initflag
  -------         ENDDO         
  C:0F5AH         LINE#         53
  C:0F5AH         LINE#         54
  C:0F5AH         LINE#         55
  C:0F5CH         LINE#         57
  C:0F5EH         LINE#         58
  C:0F65H         LINE#         59
  C:0F67H         LINE#         60
  C:0F6EH         LINE#         61
  C:0F70H         LINE#         62
  C:0F77H         LINE#         63
  C:0F7BH         LINE#         64
  C:0F7EH         LINE#         66
  C:0F80H         LINE#         67
  -------         ENDPROC       INIT_DS18B20
  -------         PROC          _READ_DS18B20
  -------         DO            
  D:0001H         SYMBOL        low
  D:0007H         SYMBOL        high
  D:0006H         SYMBOL        temp
  D:0004H         SYMBOL        tem
  -------         ENDDO         
  C:0CF8H         LINE#         70
  C:0CF8H         LINE#         71
  C:0CF8H         LINE#         75
  C:0CFBH         LINE#         76
  C:0D00H         LINE#         77
  C:0D05H         LINE#         78
  C:0D0CH         LINE#         80
  C:0D0FH         LINE#         81
  C:0D14H         LINE#         82
  C:0D19H         LINE#         83
  C:0D20H         LINE#         85
  C:0D25H         LINE#         86
  C:0D28H         LINE#         88
  C:0D2BH         LINE#         89
  C:0D37H         LINE#         90
  C:0D48H         LINE#         92
  C:0D48H         LINE#         93
  -------         ENDPROC       _READ_DS18B20
  -------         ENDMOD        ONEWIRE

  -------         MODULE        ?C?FPMUL
  C:0066H         PUBLIC        ?C?FPMUL
  -------         ENDMOD        ?C?FPMUL

  -------         MODULE        ?C?FPDIV
  C:016FH         PUBLIC        ?C?FPDIV
  -------         ENDMOD        ?C?FPDIV

  -------         MODULE        ?C?FCAST
  C:0216H         PUBLIC        ?C?FCASTC
BL51 BANKED LINKER/LOCATER V6.22                                                      06/17/2022  13:09:06  PAGE 17


  C:0211H         PUBLIC        ?C?FCASTI
  C:020CH         PUBLIC        ?C?FCASTL
  -------         ENDMOD        ?C?FCAST

  -------         MODULE        ?C?CASTF
  C:024AH         PUBLIC        ?C?CASTF
  -------         ENDMOD        ?C?CASTF

  -------         MODULE        PRINTF
  D:0023H         PUBLIC        ?_PRINTF?BYTE
  D:0023H         PUBLIC        ?_SPRINTF?BYTE
  C:06EEH         PUBLIC        _PRINTF
  C:06E8H         PUBLIC        _SPRINTF
  -------         ENDMOD        PRINTF

  -------         MODULE        ?C?FPROUND
  C:02CBH         PUBLIC        ?C?FPROUND
  -------         ENDMOD        ?C?FPROUND

  -------         MODULE        ?C?FPCONVERT
  C:02FAH         PUBLIC        ?C?FPCONVERT
  -------         ENDMOD        ?C?FPCONVERT

  -------         MODULE        ?C?FPADD
  C:0404H         PUBLIC        ?C?FPADD
  C:0400H         PUBLIC        ?C?FPSUB
  -------         ENDMOD        ?C?FPADD

  -------         MODULE        ?C?FTNPWR
  C:0525H         PUBLIC        ?C?FTNPWR
  -------         ENDMOD        ?C?FTNPWR

  -------         MODULE        ?C?CLDPTR
  C:0565H         PUBLIC        ?C?CLDPTR
  -------         ENDMOD        ?C?CLDPTR

  -------         MODULE        ?C?CLDOPTR
  C:057EH         PUBLIC        ?C?CLDOPTR
  -------         ENDMOD        ?C?CLDOPTR

  -------         MODULE        ?C?CSTPTR
  C:05ABH         PUBLIC        ?C?CSTPTR
  -------         ENDMOD        ?C?CSTPTR

  -------         MODULE        ?C?UIDIV
  C:05BDH         PUBLIC        ?C?UIDIV
  -------         ENDMOD        ?C?UIDIV

  -------         MODULE        ?C?SIDIV
  C:0612H         PUBLIC        ?C?SIDIV
  -------         ENDMOD        ?C?SIDIV

  -------         MODULE        ?C?LNEG
  C:0648H         PUBLIC        ?C?LNEG
  -------         ENDMOD        ?C?LNEG

  -------         MODULE        ?C?PLDIIDATA
BL51 BANKED LINKER/LOCATER V6.22                                                      06/17/2022  13:09:06  PAGE 18


  C:0656H         PUBLIC        ?C?PLDIIDATA
  -------         ENDMOD        ?C?PLDIIDATA

  -------         MODULE        ?C?CCASE
  C:0666H         PUBLIC        ?C?CCASE
  -------         ENDMOD        ?C?CCASE

*** WARNING L16: UNCALLED SEGMENT, IGNORED FOR OVERLAY PROCESS
    SEGMENT: ?PR?IIC_SENDACK?IIC

*** WARNING L16: UNCALLED SEGMENT, IGNORED FOR OVERLAY PROCESS
    SEGMENT: ?PR?_WRITE_24C02?IIC

*** WARNING L16: UNCALLED SEGMENT, IGNORED FOR OVERLAY PROCESS
    SEGMENT: ?PR?_DAC?IIC

*** WARNING L16: UNCALLED SEGMENT, IGNORED FOR OVERLAY PROCESS
    SEGMENT: ?PR?READ_DS1302?MAIN

*** WARNING L16: UNCALLED SEGMENT, IGNORED FOR OVERLAY PROCESS
    SEGMENT: ?PR?_DISPLAY_VOLTAGE?MAIN

*** WARNING L16: UNCALLED SEGMENT, IGNORED FOR OVERLAY PROCESS
    SEGMENT: ?PR?_DISPLAY_24C02?MAIN

*** WARNING L16: UNCALLED SEGMENT, IGNORED FOR OVERLAY PROCESS
    SEGMENT: ?PR?DELAY4MS?MAIN

*** WARNING L16: UNCALLED SEGMENT, IGNORED FOR OVERLAY PROCESS
    SEGMENT: ?PR?DISPLAY_DISTANCE?MAIN

Program Size: data=57.6 xdata=0 code=4427
LINK/LOCATE RUN COMPLETE.  8 WARNING(S),  0 ERROR(S)
